
test：     文件格式 elf64-littleriscv
test
体系结构：riscv:rv64， 标志 0x00000112：
EXEC_P, HAS_SYMS, D_PAGED
起始地址 0x0000000010000040

程序头：
    LOAD off    0x0000000000001000 vaddr 0x0000000010000000 paddr 0x0000000010000000 align 2**12
         filesz 0x0000000000001e60 memsz 0x000000000001c320 flags rwx

节：
Idx Name          Size      VMA               LMA               File off  Algn
  0 .text         00001e38  0000000010000000  0000000010000000  00001000  2**6
                  CONTENTS, ALLOC, LOAD, READONLY, CODE
  1 .rodata       00000020  0000000010001e38  0000000010001e38  00002e38  2**3
                  CONTENTS, ALLOC, LOAD, READONLY, DATA
  2 .srodata      00000002  0000000010001e58  0000000010001e58  00002e58  2**1
                  CONTENTS, ALLOC, LOAD, READONLY, DATA
  3 .sdata        00000004  0000000010001e5c  0000000010001e5c  00002e5c  2**2
                  CONTENTS, ALLOC, LOAD, DATA
  4 .stack        00001000  0000000010002000  0000000010002000  00002e60  2**0
                  ALLOC
  5 .bss          00019310  0000000010003000  0000000010003000  00002e60  2**3
                  ALLOC
  6 .sbss         00000010  000000001001c310  000000001001c310  00002e60  2**3
                  ALLOC
  7 .riscv.attributes 00000035  0000000000000000  0000000000000000  00002e60  2**0
                  CONTENTS, READONLY
  8 .comment      00000011  0000000000000000  0000000000000000  00002e95  2**0
                  CONTENTS, READONLY
SYMBOL TABLE:
0000000010000000 l    d  .text	0000000000000000 .text
0000000010001e38 l    d  .rodata	0000000000000000 .rodata
0000000010001e58 l    d  .srodata	0000000000000000 .srodata
0000000010001e5c l    d  .sdata	0000000000000000 .sdata
0000000010002000 l    d  .stack	0000000000000000 .stack
0000000010003000 l    d  .bss	0000000000000000 .bss
000000001001c310 l    d  .sbss	0000000000000000 .sbss
0000000000000000 l    d  .riscv.attributes	0000000000000000 .riscv.attributes
0000000000000000 l    d  .comment	0000000000000000 .comment
0000000000000000 l    df *ABS*	0000000000000000 /tmp/ccbc1xWd.o
0000000010000000 l       .text	0000000000000000 machine_trap_entry
00000000100000da l       .text	0000000000000000 trap_entry
0000000010000094 l       .text	0000000000000000 init_bss
00000000100000b6 l       .text	0000000000000000 fill_block
00000000100000aa l       .text	0000000000000000 init_stack
00000000100000c0 l       .text	0000000000000000 fb_end
00000000100000c2 l       .text	0000000000000000 interrupt
00000000100000d6 l       .text	0000000000000000 softwareInterrupt
0000000000000000 l    df *ABS*	0000000000000000 main.c
0000000010003000 l     O .bss	0000000000000008 xTestQueue
0000000010003008 l     O .bss	0000000000000008 uxSchedulerSuspended
0000000000000000 l    df *ABS*	0000000000000000 heap2.c
0000000010003010 l     O .bss	0000000000000010 xStart
0000000010003020 l     O .bss	0000000000000010 xEnd
0000000010003030 l     O .bss	0000000000019000 ucHeap
0000000010001e5c l     O .sdata	0000000000000004 xFreeBytesRemaining
0000000010001e58 l     O .srodata	0000000000000002 heapSTRUCT_SIZE
0000000010000206 l     F .text	0000000000000074 prvHeapInit
000000001001c030 l     O .bss	0000000000000001 xHeapHasBeenInitialised.1522
0000000000000000 l    df *ABS*	0000000000000000 common.c
0000000000000000 l    df *ABS*	0000000000000000 list2.c
0000000000000000 l    df *ABS*	0000000000000000 queue2.c
000000001001c038 l     O .bss	0000000000000008 xTestQueue
000000001001c040 l     O .bss	0000000000000008 uxSchedulerSuspended
00000000100008d4 l     F .text	0000000000000036 prvIsQueueEmpty
0000000010000afe l     F .text	000000000000010c prvCopyDataToQueue
0000000010000eb6 l     F .text	000000000000003e prvIsQueueFull
0000000010000d10 l     F .text	000000000000006c prvCopyDataFromQueue
0000000000000000 l    df *ABS*	0000000000000000 task.c
000000001001c048 l     O .bss	0000000000000008 xTestQueue
000000001001c050 l     O .bss	0000000000000008 uxSchedulerSuspended
000000001001c058 l     O .bss	0000000000000008 xSchedulerRunning
000000001001c060 l     O .bss	0000000000000008 uxTopReadyPriority
000000001001c068 l     O .bss	00000000000000c8 pxReadyTasksLists
000000001001c130 l     O .bss	0000000000000028 xDelayedTaskList1
000000001001c158 l     O .bss	0000000000000028 xDelayedTaskList2
000000001001c180 l     O .bss	0000000000000008 pxDelayedTaskList
000000001001c188 l     O .bss	0000000000000008 pxOverflowDelayedTaskList
000000001001c190 l     O .bss	0000000000000028 xPendingReadyList
000000001001c1b8 l     O .bss	0000000000000008 uxCurrentNumberOfTasks
000000001001c1c0 l     O .bss	0000000000000004 xTickCount
000000001001c1c8 l     O .bss	0000000000000028 xSuspendedTaskList
000000001001c1f0 l     O .bss	0000000000000008 uxPendedTicks
000000001001c1f8 l     O .bss	0000000000000008 xYieldPending
000000001001c200 l     O .bss	0000000000000008 xNumOfOverflows
000000001001c208 l     O .bss	0000000000000008 uxTaskNumber
000000001001c210 l     O .bss	0000000000000004 xNextTaskUnblockTime
0000000010000f24 l     F .text	000000000000004c prvResetNextTaskUnblockTime
000000001000108c l     F .text	00000000000000e0 prvInitialiseTCBVariables
00000000100011ee l     F .text	0000000000000072 prvAllocateTCBAndStack
0000000010001a94 l     F .text	000000000000008c prvInitialiseTaskLists
00000000100017c4 l     F .text	0000000000000094 prvAddCurrentTaskToDelayedList
0000000000000000 l    df *ABS*	0000000000000000 time.c
000000001001c218 l     O .bss	0000000000000008 xTestQueue
000000001001c220 l     O .bss	0000000000000008 uxSchedulerSuspended
000000001001c228 l     O .bss	0000000000000028 xActiveTimerList1
000000001001c250 l     O .bss	0000000000000028 xActiveTimerList2
000000001001c278 l     O .bss	0000000000000008 pxCurrentTimerList
000000001001c280 l     O .bss	0000000000000008 pxOverflowTimerList
000000001001c288 l     O .bss	0000000000000008 xTimerQueue
0000000010001b34 l     F .text	0000000000000024 prvSetNextTimerInterrupt
0000000010001ba6 l     F .text	000000000000008a prvCheckForValidListAndQueue
0000000010001cc0 l     F .text	000000000000004e prvGetNextExpireTime
0000000010001d0e l     F .text	000000000000000c prvTimerTask
0000000010001b20 g     F .text	0000000000000014 SetRunning
0000000010001c30 g     F .text	0000000000000090 xTimerCreate
0000000010001666 g     F .text	0000000000000032 vTaskEnterCritical
0000000010000ef4 g     F .text	0000000000000020 xQueueGenericSendFromISR
00000000100001b8 g     F .text	000000000000004e TestProgram
000000001001c318 g     O .sbss	0000000000000008 pxCurrentTCB
000000001000265a g       .sdata	0000000000000000 _gp
0000000010000878 g       .text	0000000000000000 xPortStartScheduler
00000000100004ce g     F .text	000000000000006e memcpy
0000000010001858 g     F .text	0000000000000088 vTaskPlaceOnEventList
0000000010001260 g     F .text	0000000000000194 xTaskGenericCreate
0000000010000430 g     F .text	000000000000009e vPortFree
000000001000064a g     F .text	0000000000000066 vListInsertEnd
0000000010000588 g     F .text	000000000000001a vListInitialiseItem
0000000010001b84 g     F .text	0000000000000022 vPortSysTickHandler
000000001001c290 g     O .bss	0000000000000080 xQueueRegistry
000000001001c290 g       .bss	0000000000000000 __bss_end
000000001000027a g     F .text	00000000000001b6 pvPortMalloc
000000001000053c g     F .text	000000000000004c vListInitialise
0000000010000c0a g     F .text	0000000000000106 xQueueGenericSend
000000001000152e g     F .text	00000000000000b2 xTaskRemoveFromEventList
000000001000170c g     F .text	00000000000000b8 xTaskCheckForTimeOut
0000000010001644 g     F .text	0000000000000022 vTaskSuspendAll
00000000100006b0 g     F .text	0000000000000070 uxListRemove
00000000100013f4 g     F .text	000000000000013a vTaskSwitchContext
0000000010001d1a g     F .text	00000000000000ce xTimerGenericCommand
0000000010000f14 g     F .text	0000000000000010 vApplicationStackOverflowHook
000000001001c310 g     O .sbss	0000000000000008 xData
00000000100007ce g       .text	0000000000000000 vPortYield
0000000010003000 g       .bss	0000000000000000 __bss_start
0000000000001000 g       *ABS*	0000000000000000 _STACK_SIZE
00000000100005a2 g     F .text	00000000000000a8 vListInsert
0000000010001de8 g     F .text	0000000000000050 xTimerCreateTimerTask
0000000010002000 g       .stack	0000000000000000 _stack_end
00000000100009da g     F .text	00000000000000b0 xQueueGenericCreate
0000000010000f70 g     F .text	0000000000000114 xTaskResumeAll
000000001000161a g     F .text	000000000000002a vTaskStartScheduler
0000000010000040 g       .text	0000000000000000 _mstart
0000000010000d7c g     F .text	000000000000013a xQueueGenericReceive
0000000010000a8a g     F .text	0000000000000074 vQueueAddToRegistry
00000000100018e0 g     F .text	00000000000001b4 xTaskIncrementTick
0000000010000182 g     F .text	0000000000000036 vSyscallInit
0000000010003000 g       .stack	0000000000000000 __stack
000000001000090a g     F .text	00000000000000d0 xQueueGenericReset
0000000010001b58 g     F .text	000000000000002c vPortSetupTimer
0000000010001084 g     F .text	0000000000000008 prvTaskExitError
00000000100015e0 g     F .text	000000000000003a xTaskGetSchedulerState
0000000010001698 g     F .text	0000000000000042 vTaskExitCritical
000000001000116c g     F .text	0000000000000082 pxPortInitialiseStack
0000000010003000 g       .stack	0000000000000000 _stack
00000000100016da g     F .text	0000000000000032 vTaskSetTimeOutState
0000000010000720 g       .text	0000000000000000 TIMER_CMP_INT



Disassembly of section .text:

0000000010000000 <machine_trap_entry>:
    10000000:	a8e9                	j	100000da <trap_entry>
    10000002:	0001                	nop
    10000004:	00000013          	nop
    10000008:	00000013          	nop
    1000000c:	00000013          	nop
    10000010:	00000013          	nop
    10000014:	00000013          	nop
    10000018:	00000013          	nop
    1000001c:	00000013          	nop
    10000020:	00000013          	nop
    10000024:	00000013          	nop
    10000028:	00000013          	nop
    1000002c:	00000013          	nop
    10000030:	00000013          	nop
    10000034:	00000013          	nop
    10000038:	00000013          	nop
    1000003c:	00000013          	nop

0000000010000040 <_mstart>:
    10000040:	4081                	li	ra,0
    10000042:	4101                	li	sp,0
    10000044:	4181                	li	gp,0
    10000046:	4201                	li	tp,0
    10000048:	4281                	li	t0,0
    1000004a:	4301                	li	t1,0
    1000004c:	4381                	li	t2,0
    1000004e:	4401                	li	s0,0
    10000050:	4481                	li	s1,0
    10000052:	4501                	li	a0,0
    10000054:	4581                	li	a1,0
    10000056:	4601                	li	a2,0
    10000058:	4681                	li	a3,0
    1000005a:	4701                	li	a4,0
    1000005c:	4781                	li	a5,0
    1000005e:	4801                	li	a6,0
    10000060:	4881                	li	a7,0
    10000062:	4901                	li	s2,0
    10000064:	4981                	li	s3,0
    10000066:	4a01                	li	s4,0
    10000068:	4a81                	li	s5,0
    1000006a:	4b01                	li	s6,0
    1000006c:	4b81                	li	s7,0
    1000006e:	4c01                	li	s8,0
    10000070:	4c81                	li	s9,0
    10000072:	4d01                	li	s10,0
    10000074:	4d81                	li	s11,0
    10000076:	4e01                	li	t3,0
    10000078:	4e81                	li	t4,0
    1000007a:	4f01                	li	t5,0
    1000007c:	4f81                	li	t6,0
    1000007e:	00000597          	auipc	a1,0x0
    10000082:	f8258593          	addi	a1,a1,-126 # 10000000 <machine_trap_entry>
    10000086:	30559073          	csrw	mtvec,a1
    1000008a:	4581                	li	a1,0
    1000008c:	00002197          	auipc	gp,0x2
    10000090:	5ce18193          	addi	gp,gp,1486 # 1000265a <_gp>

0000000010000094 <init_bss>:
    10000094:	00003517          	auipc	a0,0x3
    10000098:	f6c50513          	addi	a0,a0,-148 # 10003000 <__stack>
    1000009c:	0001c597          	auipc	a1,0x1c
    100000a0:	1f458593          	addi	a1,a1,500 # 1001c290 <xQueueRegistry>
    100000a4:	4601                	li	a2,0
    100000a6:	010000ef          	jal	ra,100000b6 <fill_block>

00000000100000aa <init_stack>:
    100000aa:	00003117          	auipc	sp,0x3
    100000ae:	f5610113          	addi	sp,sp,-170 # 10003000 <__stack>
    100000b2:	0d00006f          	j	10000182 <vSyscallInit>

00000000100000b6 <fill_block>:
    100000b6:	c110                	sw	a2,0(a0)
    100000b8:	00b57463          	bgeu	a0,a1,100000c0 <fb_end>
    100000bc:	0511                	addi	a0,a0,4
    100000be:	bfe5                	j	100000b6 <fill_block>

00000000100000c0 <fb_end>:
    100000c0:	8082                	ret

00000000100000c2 <interrupt>:
    100000c2:	0012d293          	srli	t0,t0,0x1
    100000c6:	00028863          	beqz	t0,100000d6 <softwareInterrupt>
    100000ca:	4282                	lw	t0,0(sp)
    100000cc:	0111                	addi	sp,sp,4
    100000ce:	6520006f          	j	10000720 <TIMER_CMP_INT>
    100000d2:	30200073          	mret

00000000100000d6 <softwareInterrupt>:
    100000d6:	30200073          	mret

00000000100000da <trap_entry>:
    100000da:	1171                	addi	sp,sp,-4
    100000dc:	c016                	sw	t0,0(sp)
    100000de:	342022f3          	csrr	t0,mcause
    100000e2:	fe02c0e3          	bltz	t0,100000c2 <interrupt>
    100000e6:	4282                	lw	t0,0(sp)
    100000e8:	0111                	addi	sp,sp,4
    100000ea:	f8410113          	addi	sp,sp,-124
    100000ee:	c206                	sw	ra,4(sp)
    100000f0:	c40a                	sw	sp,8(sp)
    100000f2:	c60e                	sw	gp,12(sp)
    100000f4:	c812                	sw	tp,16(sp)
    100000f6:	ca16                	sw	t0,20(sp)
    100000f8:	cc1a                	sw	t1,24(sp)
    100000fa:	ce1e                	sw	t2,28(sp)
    100000fc:	d022                	sw	s0,32(sp)
    100000fe:	d226                	sw	s1,36(sp)
    10000100:	d42a                	sw	a0,40(sp)
    10000102:	d62e                	sw	a1,44(sp)
    10000104:	d832                	sw	a2,48(sp)
    10000106:	da36                	sw	a3,52(sp)
    10000108:	dc3a                	sw	a4,56(sp)
    1000010a:	de3e                	sw	a5,60(sp)
    1000010c:	c0c2                	sw	a6,64(sp)
    1000010e:	c2c6                	sw	a7,68(sp)
    10000110:	c4ca                	sw	s2,72(sp)
    10000112:	c6ce                	sw	s3,76(sp)
    10000114:	c8d2                	sw	s4,80(sp)
    10000116:	cad6                	sw	s5,84(sp)
    10000118:	ccda                	sw	s6,88(sp)
    1000011a:	cede                	sw	s7,92(sp)
    1000011c:	d0e2                	sw	s8,96(sp)
    1000011e:	d2e6                	sw	s9,100(sp)
    10000120:	d4ea                	sw	s10,104(sp)
    10000122:	d6ee                	sw	s11,108(sp)
    10000124:	d8f2                	sw	t3,112(sp)
    10000126:	daf6                	sw	t4,116(sp)
    10000128:	dcfa                	sw	t5,120(sp)
    1000012a:	defe                	sw	t6,124(sp)
    1000012c:	34202573          	csrr	a0,mcause
    10000130:	341025f3          	csrr	a1,mepc
    10000134:	860a                	mv	a2,sp
    10000136:	34151073          	csrw	mepc,a0
    1000013a:	4092                	lw	ra,4(sp)
    1000013c:	4122                	lw	sp,8(sp)
    1000013e:	41b2                	lw	gp,12(sp)
    10000140:	4242                	lw	tp,16(sp)
    10000142:	42d2                	lw	t0,20(sp)
    10000144:	4362                	lw	t1,24(sp)
    10000146:	43f2                	lw	t2,28(sp)
    10000148:	5402                	lw	s0,32(sp)
    1000014a:	5492                	lw	s1,36(sp)
    1000014c:	5522                	lw	a0,40(sp)
    1000014e:	55b2                	lw	a1,44(sp)
    10000150:	5642                	lw	a2,48(sp)
    10000152:	56d2                	lw	a3,52(sp)
    10000154:	5762                	lw	a4,56(sp)
    10000156:	57f2                	lw	a5,60(sp)
    10000158:	4806                	lw	a6,64(sp)
    1000015a:	4896                	lw	a7,68(sp)
    1000015c:	4926                	lw	s2,72(sp)
    1000015e:	49b6                	lw	s3,76(sp)
    10000160:	4a46                	lw	s4,80(sp)
    10000162:	4ad6                	lw	s5,84(sp)
    10000164:	4b66                	lw	s6,88(sp)
    10000166:	4bf6                	lw	s7,92(sp)
    10000168:	5c06                	lw	s8,96(sp)
    1000016a:	5c96                	lw	s9,100(sp)
    1000016c:	5d26                	lw	s10,104(sp)
    1000016e:	5db6                	lw	s11,108(sp)
    10000170:	5e46                	lw	t3,112(sp)
    10000172:	5ed6                	lw	t4,116(sp)
    10000174:	5f66                	lw	t5,120(sp)
    10000176:	5ff6                	lw	t6,124(sp)
    10000178:	07c10113          	addi	sp,sp,124
    1000017c:	30200073          	mret
	...

0000000010000182 <vSyscallInit>:
    10000182:	1141                	addi	sp,sp,-16
    10000184:	e406                	sd	ra,8(sp)
    10000186:	e022                	sd	s0,0(sp)
    10000188:	0800                	addi	s0,sp,16
    1000018a:	197010ef          	jal	ra,10001b20 <SetRunning>
    1000018e:	4881                	li	a7,0
    10000190:	4801                	li	a6,0
    10000192:	4781                	li	a5,0
    10000194:	4751                	li	a4,20
    10000196:	4681                	li	a3,0
    10000198:	6605                	lui	a2,0x1
    1000019a:	100025b7          	lui	a1,0x10002
    1000019e:	e3858593          	addi	a1,a1,-456 # 10001e38 <xTimerCreateTimerTask+0x50>
    100001a2:	10000537          	lui	a0,0x10000
    100001a6:	1b850513          	addi	a0,a0,440 # 100001b8 <TestProgram>
    100001aa:	0b6010ef          	jal	ra,10001260 <xTaskGenericCreate>
    100001ae:	0001                	nop
    100001b0:	60a2                	ld	ra,8(sp)
    100001b2:	6402                	ld	s0,0(sp)
    100001b4:	0141                	addi	sp,sp,16
    100001b6:	8082                	ret

00000000100001b8 <TestProgram>:
    100001b8:	1101                	addi	sp,sp,-32
    100001ba:	ec06                	sd	ra,24(sp)
    100001bc:	e822                	sd	s0,16(sp)
    100001be:	1000                	addi	s0,sp,32
    100001c0:	4785                	li	a5,1
    100001c2:	fef43023          	sd	a5,-32(s0)
    100001c6:	4601                	li	a2,0
    100001c8:	45a1                	li	a1,8
    100001ca:	4515                	li	a0,5
    100001cc:	00f000ef          	jal	ra,100009da <xQueueGenericCreate>
    100001d0:	87aa                	mv	a5,a0
    100001d2:	fef43423          	sd	a5,-24(s0)
    100001d6:	fe040793          	addi	a5,s0,-32
    100001da:	4685                	li	a3,1
    100001dc:	4601                	li	a2,0
    100001de:	85be                	mv	a1,a5
    100001e0:	fe843503          	ld	a0,-24(s0)
    100001e4:	227000ef          	jal	ra,10000c0a <xQueueGenericSend>
    100001e8:	4681                	li	a3,0
    100001ea:	4601                	li	a2,0
    100001ec:	1001c7b7          	lui	a5,0x1001c
    100001f0:	31078593          	addi	a1,a5,784 # 1001c310 <xData>
    100001f4:	fe843503          	ld	a0,-24(s0)
    100001f8:	385000ef          	jal	ra,10000d7c <xQueueGenericReceive>
    100001fc:	0001                	nop
    100001fe:	60e2                	ld	ra,24(sp)
    10000200:	6442                	ld	s0,16(sp)
    10000202:	6105                	addi	sp,sp,32
    10000204:	8082                	ret

0000000010000206 <prvHeapInit>:
    10000206:	1101                	addi	sp,sp,-32
    10000208:	ec22                	sd	s0,24(sp)
    1000020a:	1000                	addi	s0,sp,32
    1000020c:	100037b7          	lui	a5,0x10003
    10000210:	03878793          	addi	a5,a5,56 # 10003038 <ucHeap+0x8>
    10000214:	2781                	sext.w	a5,a5
    10000216:	9be1                	andi	a5,a5,-8
    10000218:	2781                	sext.w	a5,a5
    1000021a:	fef43423          	sd	a5,-24(s0)
    1000021e:	100037b7          	lui	a5,0x10003
    10000222:	01078793          	addi	a5,a5,16 # 10003010 <xStart>
    10000226:	fe843703          	ld	a4,-24(s0)
    1000022a:	e398                	sd	a4,0(a5)
    1000022c:	100037b7          	lui	a5,0x10003
    10000230:	01078793          	addi	a5,a5,16 # 10003010 <xStart>
    10000234:	0007a423          	sw	zero,8(a5)
    10000238:	100037b7          	lui	a5,0x10003
    1000023c:	02078793          	addi	a5,a5,32 # 10003020 <xEnd>
    10000240:	0007b023          	sd	zero,0(a5)
    10000244:	100037b7          	lui	a5,0x10003
    10000248:	02078793          	addi	a5,a5,32 # 10003020 <xEnd>
    1000024c:	6765                	lui	a4,0x19
    1000024e:	3761                	addiw	a4,a4,-8
    10000250:	c798                	sw	a4,8(a5)
    10000252:	fe843783          	ld	a5,-24(s0)
    10000256:	fef43023          	sd	a5,-32(s0)
    1000025a:	fe043783          	ld	a5,-32(s0)
    1000025e:	6765                	lui	a4,0x19
    10000260:	3761                	addiw	a4,a4,-8
    10000262:	c798                	sw	a4,8(a5)
    10000264:	fe043783          	ld	a5,-32(s0)
    10000268:	10003737          	lui	a4,0x10003
    1000026c:	02070713          	addi	a4,a4,32 # 10003020 <xEnd>
    10000270:	e398                	sd	a4,0(a5)
    10000272:	0001                	nop
    10000274:	6462                	ld	s0,24(sp)
    10000276:	6105                	addi	sp,sp,32
    10000278:	8082                	ret

000000001000027a <pvPortMalloc>:
    1000027a:	715d                	addi	sp,sp,-80
    1000027c:	e486                	sd	ra,72(sp)
    1000027e:	e0a2                	sd	s0,64(sp)
    10000280:	0880                	addi	s0,sp,80
    10000282:	87aa                	mv	a5,a0
    10000284:	faf42e23          	sw	a5,-68(s0)
    10000288:	fc043c23          	sd	zero,-40(s0)
    1000028c:	1001c7b7          	lui	a5,0x1001c
    10000290:	0307c783          	lbu	a5,48(a5) # 1001c030 <xHeapHasBeenInitialised.1522>
    10000294:	eb81                	bnez	a5,100002a4 <pvPortMalloc+0x2a>
    10000296:	f71ff0ef          	jal	ra,10000206 <prvHeapInit>
    1000029a:	1001c7b7          	lui	a5,0x1001c
    1000029e:	4705                	li	a4,1
    100002a0:	02e78823          	sb	a4,48(a5) # 1001c030 <xHeapHasBeenInitialised.1522>
    100002a4:	fbc42783          	lw	a5,-68(s0)
    100002a8:	2781                	sext.w	a5,a5
    100002aa:	02f05b63          	blez	a5,100002e0 <pvPortMalloc+0x66>
    100002ae:	47c1                	li	a5,16
    100002b0:	2781                	sext.w	a5,a5
    100002b2:	fbc42703          	lw	a4,-68(s0)
    100002b6:	9fb9                	addw	a5,a5,a4
    100002b8:	faf42e23          	sw	a5,-68(s0)
    100002bc:	fbc42783          	lw	a5,-68(s0)
    100002c0:	8b9d                	andi	a5,a5,7
    100002c2:	2781                	sext.w	a5,a5
    100002c4:	cf91                	beqz	a5,100002e0 <pvPortMalloc+0x66>
    100002c6:	fbc42783          	lw	a5,-68(s0)
    100002ca:	8b9d                	andi	a5,a5,7
    100002cc:	2781                	sext.w	a5,a5
    100002ce:	4721                	li	a4,8
    100002d0:	40f707bb          	subw	a5,a4,a5
    100002d4:	2781                	sext.w	a5,a5
    100002d6:	fbc42703          	lw	a4,-68(s0)
    100002da:	9fb9                	addw	a5,a5,a4
    100002dc:	faf42e23          	sw	a5,-68(s0)
    100002e0:	fbc42783          	lw	a5,-68(s0)
    100002e4:	2781                	sext.w	a5,a5
    100002e6:	12f05e63          	blez	a5,10000422 <pvPortMalloc+0x1a8>
    100002ea:	fbc42783          	lw	a5,-68(s0)
    100002ee:	0007871b          	sext.w	a4,a5
    100002f2:	67e5                	lui	a5,0x19
    100002f4:	17dd                	addi	a5,a5,-9
    100002f6:	12e7c663          	blt	a5,a4,10000422 <pvPortMalloc+0x1a8>
    100002fa:	100037b7          	lui	a5,0x10003
    100002fe:	01078793          	addi	a5,a5,16 # 10003010 <xStart>
    10000302:	fef43023          	sd	a5,-32(s0)
    10000306:	100037b7          	lui	a5,0x10003
    1000030a:	01078793          	addi	a5,a5,16 # 10003010 <xStart>
    1000030e:	639c                	ld	a5,0(a5)
    10000310:	fef43423          	sd	a5,-24(s0)
    10000314:	a811                	j	10000328 <pvPortMalloc+0xae>
    10000316:	fe843783          	ld	a5,-24(s0)
    1000031a:	fef43023          	sd	a5,-32(s0)
    1000031e:	fe843783          	ld	a5,-24(s0)
    10000322:	639c                	ld	a5,0(a5)
    10000324:	fef43423          	sd	a5,-24(s0)
    10000328:	fe843783          	ld	a5,-24(s0)
    1000032c:	4798                	lw	a4,8(a5)
    1000032e:	fbc42783          	lw	a5,-68(s0)
    10000332:	2781                	sext.w	a5,a5
    10000334:	00f75663          	bge	a4,a5,10000340 <pvPortMalloc+0xc6>
    10000338:	fe843783          	ld	a5,-24(s0)
    1000033c:	639c                	ld	a5,0(a5)
    1000033e:	ffe1                	bnez	a5,10000316 <pvPortMalloc+0x9c>
    10000340:	fe843703          	ld	a4,-24(s0)
    10000344:	100037b7          	lui	a5,0x10003
    10000348:	02078793          	addi	a5,a5,32 # 10003020 <xEnd>
    1000034c:	0cf70b63          	beq	a4,a5,10000422 <pvPortMalloc+0x1a8>
    10000350:	fe043783          	ld	a5,-32(s0)
    10000354:	639c                	ld	a5,0(a5)
    10000356:	4741                	li	a4,16
    10000358:	97ba                	add	a5,a5,a4
    1000035a:	fcf43c23          	sd	a5,-40(s0)
    1000035e:	fe843783          	ld	a5,-24(s0)
    10000362:	6398                	ld	a4,0(a5)
    10000364:	fe043783          	ld	a5,-32(s0)
    10000368:	e398                	sd	a4,0(a5)
    1000036a:	fe843783          	ld	a5,-24(s0)
    1000036e:	4798                	lw	a4,8(a5)
    10000370:	fbc42783          	lw	a5,-68(s0)
    10000374:	40f707bb          	subw	a5,a4,a5
    10000378:	0007871b          	sext.w	a4,a5
    1000037c:	47c1                	li	a5,16
    1000037e:	2781                	sext.w	a5,a5
    10000380:	0017979b          	slliw	a5,a5,0x1
    10000384:	2781                	sext.w	a5,a5
    10000386:	06e7df63          	bge	a5,a4,10000404 <pvPortMalloc+0x18a>
    1000038a:	fbc42783          	lw	a5,-68(s0)
    1000038e:	fe843703          	ld	a4,-24(s0)
    10000392:	97ba                	add	a5,a5,a4
    10000394:	fcf43423          	sd	a5,-56(s0)
    10000398:	fe843783          	ld	a5,-24(s0)
    1000039c:	4798                	lw	a4,8(a5)
    1000039e:	fbc42783          	lw	a5,-68(s0)
    100003a2:	40f707bb          	subw	a5,a4,a5
    100003a6:	0007871b          	sext.w	a4,a5
    100003aa:	fc843783          	ld	a5,-56(s0)
    100003ae:	c798                	sw	a4,8(a5)
    100003b0:	fe843783          	ld	a5,-24(s0)
    100003b4:	fbc42703          	lw	a4,-68(s0)
    100003b8:	c798                	sw	a4,8(a5)
    100003ba:	fc843783          	ld	a5,-56(s0)
    100003be:	479c                	lw	a5,8(a5)
    100003c0:	fcf42223          	sw	a5,-60(s0)
    100003c4:	100037b7          	lui	a5,0x10003
    100003c8:	01078793          	addi	a5,a5,16 # 10003010 <xStart>
    100003cc:	fcf43823          	sd	a5,-48(s0)
    100003d0:	a031                	j	100003dc <pvPortMalloc+0x162>
    100003d2:	fd043783          	ld	a5,-48(s0)
    100003d6:	639c                	ld	a5,0(a5)
    100003d8:	fcf43823          	sd	a5,-48(s0)
    100003dc:	fd043783          	ld	a5,-48(s0)
    100003e0:	639c                	ld	a5,0(a5)
    100003e2:	4798                	lw	a4,8(a5)
    100003e4:	fc442783          	lw	a5,-60(s0)
    100003e8:	2781                	sext.w	a5,a5
    100003ea:	fef744e3          	blt	a4,a5,100003d2 <pvPortMalloc+0x158>
    100003ee:	fd043783          	ld	a5,-48(s0)
    100003f2:	6398                	ld	a4,0(a5)
    100003f4:	fc843783          	ld	a5,-56(s0)
    100003f8:	e398                	sd	a4,0(a5)
    100003fa:	fd043783          	ld	a5,-48(s0)
    100003fe:	fc843703          	ld	a4,-56(s0)
    10000402:	e398                	sd	a4,0(a5)
    10000404:	100027b7          	lui	a5,0x10002
    10000408:	e5c7a703          	lw	a4,-420(a5) # 10001e5c <xFreeBytesRemaining>
    1000040c:	fe843783          	ld	a5,-24(s0)
    10000410:	479c                	lw	a5,8(a5)
    10000412:	40f707bb          	subw	a5,a4,a5
    10000416:	0007871b          	sext.w	a4,a5
    1000041a:	100027b7          	lui	a5,0x10002
    1000041e:	e4e7ae23          	sw	a4,-420(a5) # 10001e5c <xFreeBytesRemaining>
    10000422:	fd843783          	ld	a5,-40(s0)
    10000426:	853e                	mv	a0,a5
    10000428:	60a6                	ld	ra,72(sp)
    1000042a:	6406                	ld	s0,64(sp)
    1000042c:	6161                	addi	sp,sp,80
    1000042e:	8082                	ret

0000000010000430 <vPortFree>:
    10000430:	7139                	addi	sp,sp,-64
    10000432:	fc22                	sd	s0,56(sp)
    10000434:	0080                	addi	s0,sp,64
    10000436:	fca43423          	sd	a0,-56(s0)
    1000043a:	fc843783          	ld	a5,-56(s0)
    1000043e:	fef43023          	sd	a5,-32(s0)
    10000442:	fc843783          	ld	a5,-56(s0)
    10000446:	c3c1                	beqz	a5,100004c6 <vPortFree+0x96>
    10000448:	47c1                	li	a5,16
    1000044a:	40f007b3          	neg	a5,a5
    1000044e:	fe043703          	ld	a4,-32(s0)
    10000452:	97ba                	add	a5,a5,a4
    10000454:	fef43023          	sd	a5,-32(s0)
    10000458:	fe043783          	ld	a5,-32(s0)
    1000045c:	fcf43c23          	sd	a5,-40(s0)
    10000460:	fd843783          	ld	a5,-40(s0)
    10000464:	479c                	lw	a5,8(a5)
    10000466:	fcf42a23          	sw	a5,-44(s0)
    1000046a:	100037b7          	lui	a5,0x10003
    1000046e:	01078793          	addi	a5,a5,16 # 10003010 <xStart>
    10000472:	fef43423          	sd	a5,-24(s0)
    10000476:	a031                	j	10000482 <vPortFree+0x52>
    10000478:	fe843783          	ld	a5,-24(s0)
    1000047c:	639c                	ld	a5,0(a5)
    1000047e:	fef43423          	sd	a5,-24(s0)
    10000482:	fe843783          	ld	a5,-24(s0)
    10000486:	639c                	ld	a5,0(a5)
    10000488:	4798                	lw	a4,8(a5)
    1000048a:	fd442783          	lw	a5,-44(s0)
    1000048e:	2781                	sext.w	a5,a5
    10000490:	fef744e3          	blt	a4,a5,10000478 <vPortFree+0x48>
    10000494:	fe843783          	ld	a5,-24(s0)
    10000498:	6398                	ld	a4,0(a5)
    1000049a:	fd843783          	ld	a5,-40(s0)
    1000049e:	e398                	sd	a4,0(a5)
    100004a0:	fe843783          	ld	a5,-24(s0)
    100004a4:	fd843703          	ld	a4,-40(s0)
    100004a8:	e398                	sd	a4,0(a5)
    100004aa:	fd843783          	ld	a5,-40(s0)
    100004ae:	4798                	lw	a4,8(a5)
    100004b0:	100027b7          	lui	a5,0x10002
    100004b4:	e5c7a783          	lw	a5,-420(a5) # 10001e5c <xFreeBytesRemaining>
    100004b8:	9fb9                	addw	a5,a5,a4
    100004ba:	0007871b          	sext.w	a4,a5
    100004be:	100027b7          	lui	a5,0x10002
    100004c2:	e4e7ae23          	sw	a4,-420(a5) # 10001e5c <xFreeBytesRemaining>
    100004c6:	0001                	nop
    100004c8:	7462                	ld	s0,56(sp)
    100004ca:	6121                	addi	sp,sp,64
    100004cc:	8082                	ret

00000000100004ce <memcpy>:
    100004ce:	715d                	addi	sp,sp,-80
    100004d0:	e4a2                	sd	s0,72(sp)
    100004d2:	0880                	addi	s0,sp,80
    100004d4:	fca43423          	sd	a0,-56(s0)
    100004d8:	fcb43023          	sd	a1,-64(s0)
    100004dc:	87b2                	mv	a5,a2
    100004de:	faf42e23          	sw	a5,-68(s0)
    100004e2:	fc843783          	ld	a5,-56(s0)
    100004e6:	fef43423          	sd	a5,-24(s0)
    100004ea:	fc043783          	ld	a5,-64(s0)
    100004ee:	fef43023          	sd	a5,-32(s0)
    100004f2:	fc042e23          	sw	zero,-36(s0)
    100004f6:	a035                	j	10000522 <memcpy+0x54>
    100004f8:	fe043703          	ld	a4,-32(s0)
    100004fc:	00170793          	addi	a5,a4,1
    10000500:	fef43023          	sd	a5,-32(s0)
    10000504:	fe843783          	ld	a5,-24(s0)
    10000508:	00178693          	addi	a3,a5,1
    1000050c:	fed43423          	sd	a3,-24(s0)
    10000510:	00074703          	lbu	a4,0(a4)
    10000514:	00e78023          	sb	a4,0(a5)
    10000518:	fdc42783          	lw	a5,-36(s0)
    1000051c:	2785                	addiw	a5,a5,1
    1000051e:	fcf42e23          	sw	a5,-36(s0)
    10000522:	fdc42703          	lw	a4,-36(s0)
    10000526:	fbc42783          	lw	a5,-68(s0)
    1000052a:	2701                	sext.w	a4,a4
    1000052c:	2781                	sext.w	a5,a5
    1000052e:	fcf745e3          	blt	a4,a5,100004f8 <memcpy+0x2a>
    10000532:	0001                	nop
    10000534:	0001                	nop
    10000536:	6426                	ld	s0,72(sp)
    10000538:	6161                	addi	sp,sp,80
    1000053a:	8082                	ret

000000001000053c <vListInitialise>:
    1000053c:	1101                	addi	sp,sp,-32
    1000053e:	ec22                	sd	s0,24(sp)
    10000540:	1000                	addi	s0,sp,32
    10000542:	fea43423          	sd	a0,-24(s0)
    10000546:	fe843783          	ld	a5,-24(s0)
    1000054a:	01078713          	addi	a4,a5,16
    1000054e:	fe843783          	ld	a5,-24(s0)
    10000552:	e798                	sd	a4,8(a5)
    10000554:	fe843783          	ld	a5,-24(s0)
    10000558:	577d                	li	a4,-1
    1000055a:	cb98                	sw	a4,16(a5)
    1000055c:	fe843783          	ld	a5,-24(s0)
    10000560:	01078713          	addi	a4,a5,16
    10000564:	fe843783          	ld	a5,-24(s0)
    10000568:	ef98                	sd	a4,24(a5)
    1000056a:	fe843783          	ld	a5,-24(s0)
    1000056e:	01078713          	addi	a4,a5,16
    10000572:	fe843783          	ld	a5,-24(s0)
    10000576:	f398                	sd	a4,32(a5)
    10000578:	fe843783          	ld	a5,-24(s0)
    1000057c:	0007b023          	sd	zero,0(a5)
    10000580:	0001                	nop
    10000582:	6462                	ld	s0,24(sp)
    10000584:	6105                	addi	sp,sp,32
    10000586:	8082                	ret

0000000010000588 <vListInitialiseItem>:
    10000588:	1101                	addi	sp,sp,-32
    1000058a:	ec22                	sd	s0,24(sp)
    1000058c:	1000                	addi	s0,sp,32
    1000058e:	fea43423          	sd	a0,-24(s0)
    10000592:	fe843783          	ld	a5,-24(s0)
    10000596:	0207b023          	sd	zero,32(a5)
    1000059a:	0001                	nop
    1000059c:	6462                	ld	s0,24(sp)
    1000059e:	6105                	addi	sp,sp,32
    100005a0:	8082                	ret

00000000100005a2 <vListInsert>:
    100005a2:	7179                	addi	sp,sp,-48
    100005a4:	f422                	sd	s0,40(sp)
    100005a6:	1800                	addi	s0,sp,48
    100005a8:	fca43c23          	sd	a0,-40(s0)
    100005ac:	fcb43823          	sd	a1,-48(s0)
    100005b0:	fd043783          	ld	a5,-48(s0)
    100005b4:	439c                	lw	a5,0(a5)
    100005b6:	fef42223          	sw	a5,-28(s0)
    100005ba:	fe442783          	lw	a5,-28(s0)
    100005be:	0007871b          	sext.w	a4,a5
    100005c2:	57fd                	li	a5,-1
    100005c4:	00f71863          	bne	a4,a5,100005d4 <vListInsert+0x32>
    100005c8:	fd843783          	ld	a5,-40(s0)
    100005cc:	739c                	ld	a5,32(a5)
    100005ce:	fef43423          	sd	a5,-24(s0)
    100005d2:	a02d                	j	100005fc <vListInsert+0x5a>
    100005d4:	fd843783          	ld	a5,-40(s0)
    100005d8:	07c1                	addi	a5,a5,16
    100005da:	fef43423          	sd	a5,-24(s0)
    100005de:	a031                	j	100005ea <vListInsert+0x48>
    100005e0:	fe843783          	ld	a5,-24(s0)
    100005e4:	679c                	ld	a5,8(a5)
    100005e6:	fef43423          	sd	a5,-24(s0)
    100005ea:	fe843783          	ld	a5,-24(s0)
    100005ee:	679c                	ld	a5,8(a5)
    100005f0:	4398                	lw	a4,0(a5)
    100005f2:	fe442783          	lw	a5,-28(s0)
    100005f6:	2781                	sext.w	a5,a5
    100005f8:	fee7f4e3          	bgeu	a5,a4,100005e0 <vListInsert+0x3e>
    100005fc:	fe843783          	ld	a5,-24(s0)
    10000600:	6798                	ld	a4,8(a5)
    10000602:	fd043783          	ld	a5,-48(s0)
    10000606:	e798                	sd	a4,8(a5)
    10000608:	fd043783          	ld	a5,-48(s0)
    1000060c:	679c                	ld	a5,8(a5)
    1000060e:	fd043703          	ld	a4,-48(s0)
    10000612:	eb98                	sd	a4,16(a5)
    10000614:	fd043783          	ld	a5,-48(s0)
    10000618:	fe843703          	ld	a4,-24(s0)
    1000061c:	eb98                	sd	a4,16(a5)
    1000061e:	fe843783          	ld	a5,-24(s0)
    10000622:	fd043703          	ld	a4,-48(s0)
    10000626:	e798                	sd	a4,8(a5)
    10000628:	fd043783          	ld	a5,-48(s0)
    1000062c:	fd843703          	ld	a4,-40(s0)
    10000630:	f398                	sd	a4,32(a5)
    10000632:	fd843783          	ld	a5,-40(s0)
    10000636:	639c                	ld	a5,0(a5)
    10000638:	00178713          	addi	a4,a5,1
    1000063c:	fd843783          	ld	a5,-40(s0)
    10000640:	e398                	sd	a4,0(a5)
    10000642:	0001                	nop
    10000644:	7422                	ld	s0,40(sp)
    10000646:	6145                	addi	sp,sp,48
    10000648:	8082                	ret

000000001000064a <vListInsertEnd>:
    1000064a:	7179                	addi	sp,sp,-48
    1000064c:	f422                	sd	s0,40(sp)
    1000064e:	1800                	addi	s0,sp,48
    10000650:	fca43c23          	sd	a0,-40(s0)
    10000654:	fcb43823          	sd	a1,-48(s0)
    10000658:	fd843783          	ld	a5,-40(s0)
    1000065c:	679c                	ld	a5,8(a5)
    1000065e:	fef43423          	sd	a5,-24(s0)
    10000662:	fd043783          	ld	a5,-48(s0)
    10000666:	fe843703          	ld	a4,-24(s0)
    1000066a:	e798                	sd	a4,8(a5)
    1000066c:	fe843783          	ld	a5,-24(s0)
    10000670:	6b98                	ld	a4,16(a5)
    10000672:	fd043783          	ld	a5,-48(s0)
    10000676:	eb98                	sd	a4,16(a5)
    10000678:	fe843783          	ld	a5,-24(s0)
    1000067c:	6b9c                	ld	a5,16(a5)
    1000067e:	fd043703          	ld	a4,-48(s0)
    10000682:	e798                	sd	a4,8(a5)
    10000684:	fe843783          	ld	a5,-24(s0)
    10000688:	fd043703          	ld	a4,-48(s0)
    1000068c:	eb98                	sd	a4,16(a5)
    1000068e:	fd043783          	ld	a5,-48(s0)
    10000692:	fd843703          	ld	a4,-40(s0)
    10000696:	f398                	sd	a4,32(a5)
    10000698:	fd843783          	ld	a5,-40(s0)
    1000069c:	639c                	ld	a5,0(a5)
    1000069e:	00178713          	addi	a4,a5,1
    100006a2:	fd843783          	ld	a5,-40(s0)
    100006a6:	e398                	sd	a4,0(a5)
    100006a8:	0001                	nop
    100006aa:	7422                	ld	s0,40(sp)
    100006ac:	6145                	addi	sp,sp,48
    100006ae:	8082                	ret

00000000100006b0 <uxListRemove>:
    100006b0:	7179                	addi	sp,sp,-48
    100006b2:	f422                	sd	s0,40(sp)
    100006b4:	1800                	addi	s0,sp,48
    100006b6:	fca43c23          	sd	a0,-40(s0)
    100006ba:	fd843783          	ld	a5,-40(s0)
    100006be:	739c                	ld	a5,32(a5)
    100006c0:	fef43423          	sd	a5,-24(s0)
    100006c4:	fd843783          	ld	a5,-40(s0)
    100006c8:	679c                	ld	a5,8(a5)
    100006ca:	fd843703          	ld	a4,-40(s0)
    100006ce:	6b18                	ld	a4,16(a4)
    100006d0:	eb98                	sd	a4,16(a5)
    100006d2:	fd843783          	ld	a5,-40(s0)
    100006d6:	6b9c                	ld	a5,16(a5)
    100006d8:	fd843703          	ld	a4,-40(s0)
    100006dc:	6718                	ld	a4,8(a4)
    100006de:	e798                	sd	a4,8(a5)
    100006e0:	fe843783          	ld	a5,-24(s0)
    100006e4:	679c                	ld	a5,8(a5)
    100006e6:	fd843703          	ld	a4,-40(s0)
    100006ea:	00f71863          	bne	a4,a5,100006fa <uxListRemove+0x4a>
    100006ee:	fd843783          	ld	a5,-40(s0)
    100006f2:	6b98                	ld	a4,16(a5)
    100006f4:	fe843783          	ld	a5,-24(s0)
    100006f8:	e798                	sd	a4,8(a5)
    100006fa:	fd843783          	ld	a5,-40(s0)
    100006fe:	0207b023          	sd	zero,32(a5)
    10000702:	fe843783          	ld	a5,-24(s0)
    10000706:	639c                	ld	a5,0(a5)
    10000708:	fff78713          	addi	a4,a5,-1
    1000070c:	fe843783          	ld	a5,-24(s0)
    10000710:	e398                	sd	a4,0(a5)
    10000712:	fe843783          	ld	a5,-24(s0)
    10000716:	639c                	ld	a5,0(a5)
    10000718:	853e                	mv	a0,a5
    1000071a:	7422                	ld	s0,40(sp)
    1000071c:	6145                	addi	sp,sp,48
    1000071e:	8082                	ret

0000000010000720 <TIMER_CMP_INT>:
    10000720:	7119                	addi	sp,sp,-128
    10000722:	c006                	sw	ra,0(sp)
    10000724:	c20a                	sw	sp,4(sp)
    10000726:	c40e                	sw	gp,8(sp)
    10000728:	c612                	sw	tp,12(sp)
    1000072a:	c816                	sw	t0,16(sp)
    1000072c:	ca1a                	sw	t1,20(sp)
    1000072e:	cc1e                	sw	t2,24(sp)
    10000730:	ce22                	sw	s0,28(sp)
    10000732:	d026                	sw	s1,32(sp)
    10000734:	d22a                	sw	a0,36(sp)
    10000736:	d42e                	sw	a1,40(sp)
    10000738:	d632                	sw	a2,44(sp)
    1000073a:	d836                	sw	a3,48(sp)
    1000073c:	da3a                	sw	a4,52(sp)
    1000073e:	dc3e                	sw	a5,56(sp)
    10000740:	de42                	sw	a6,60(sp)
    10000742:	c0c6                	sw	a7,64(sp)
    10000744:	c2ca                	sw	s2,68(sp)
    10000746:	c4ce                	sw	s3,72(sp)
    10000748:	c6d2                	sw	s4,76(sp)
    1000074a:	c8d6                	sw	s5,80(sp)
    1000074c:	cada                	sw	s6,84(sp)
    1000074e:	ccde                	sw	s7,88(sp)
    10000750:	cee2                	sw	s8,92(sp)
    10000752:	d0e6                	sw	s9,96(sp)
    10000754:	d2ea                	sw	s10,100(sp)
    10000756:	d4ee                	sw	s11,104(sp)
    10000758:	d6f2                	sw	t3,108(sp)
    1000075a:	d8f6                	sw	t4,112(sp)
    1000075c:	dafa                	sw	t5,116(sp)
    1000075e:	dcfe                	sw	t6,120(sp)
    10000760:	0001c297          	auipc	t0,0x1c
    10000764:	bb82a283          	lw	t0,-1096(t0) # 1001c318 <pxCurrentTCB>
    10000768:	0022a023          	sw	sp,0(t0)
    1000076c:	341022f3          	csrr	t0,mepc
    10000770:	de96                	sw	t0,124(sp)
    10000772:	412010ef          	jal	ra,10001b84 <vPortSysTickHandler>
    10000776:	0001c117          	auipc	sp,0x1c
    1000077a:	ba212103          	lw	sp,-1118(sp) # 1001c318 <pxCurrentTCB>
    1000077e:	4102                	lw	sp,0(sp)
    10000780:	52f6                	lw	t0,124(sp)
    10000782:	34129073          	csrw	mepc,t0
    10000786:	03000293          	li	t0,48
    1000078a:	3002a073          	csrs	mstatus,t0
    1000078e:	4082                	lw	ra,0(sp)
    10000790:	4232                	lw	tp,12(sp)
    10000792:	42c2                	lw	t0,16(sp)
    10000794:	4352                	lw	t1,20(sp)
    10000796:	43e2                	lw	t2,24(sp)
    10000798:	4472                	lw	s0,28(sp)
    1000079a:	5482                	lw	s1,32(sp)
    1000079c:	5512                	lw	a0,36(sp)
    1000079e:	55a2                	lw	a1,40(sp)
    100007a0:	5632                	lw	a2,44(sp)
    100007a2:	56c2                	lw	a3,48(sp)
    100007a4:	5752                	lw	a4,52(sp)
    100007a6:	57e2                	lw	a5,56(sp)
    100007a8:	5872                	lw	a6,60(sp)
    100007aa:	4886                	lw	a7,64(sp)
    100007ac:	4916                	lw	s2,68(sp)
    100007ae:	49a6                	lw	s3,72(sp)
    100007b0:	4a36                	lw	s4,76(sp)
    100007b2:	4ac6                	lw	s5,80(sp)
    100007b4:	4b56                	lw	s6,84(sp)
    100007b6:	4be6                	lw	s7,88(sp)
    100007b8:	4c76                	lw	s8,92(sp)
    100007ba:	5c86                	lw	s9,96(sp)
    100007bc:	5d16                	lw	s10,100(sp)
    100007be:	5da6                	lw	s11,104(sp)
    100007c0:	5e36                	lw	t3,108(sp)
    100007c2:	5ec6                	lw	t4,112(sp)
    100007c4:	5f56                	lw	t5,116(sp)
    100007c6:	5fe6                	lw	t6,120(sp)
    100007c8:	6109                	addi	sp,sp,128
    100007ca:	30200073          	mret

00000000100007ce <vPortYield>:
    100007ce:	7119                	addi	sp,sp,-128
    100007d0:	c006                	sw	ra,0(sp)
    100007d2:	c20a                	sw	sp,4(sp)
    100007d4:	c40e                	sw	gp,8(sp)
    100007d6:	c612                	sw	tp,12(sp)
    100007d8:	c816                	sw	t0,16(sp)
    100007da:	ca1a                	sw	t1,20(sp)
    100007dc:	cc1e                	sw	t2,24(sp)
    100007de:	ce22                	sw	s0,28(sp)
    100007e0:	d026                	sw	s1,32(sp)
    100007e2:	d22a                	sw	a0,36(sp)
    100007e4:	d42e                	sw	a1,40(sp)
    100007e6:	d632                	sw	a2,44(sp)
    100007e8:	d836                	sw	a3,48(sp)
    100007ea:	da3a                	sw	a4,52(sp)
    100007ec:	dc3e                	sw	a5,56(sp)
    100007ee:	de42                	sw	a6,60(sp)
    100007f0:	c0c6                	sw	a7,64(sp)
    100007f2:	c2ca                	sw	s2,68(sp)
    100007f4:	c4ce                	sw	s3,72(sp)
    100007f6:	c6d2                	sw	s4,76(sp)
    100007f8:	c8d6                	sw	s5,80(sp)
    100007fa:	cada                	sw	s6,84(sp)
    100007fc:	ccde                	sw	s7,88(sp)
    100007fe:	cee2                	sw	s8,92(sp)
    10000800:	d0e6                	sw	s9,96(sp)
    10000802:	d2ea                	sw	s10,100(sp)
    10000804:	d4ee                	sw	s11,104(sp)
    10000806:	d6f2                	sw	t3,108(sp)
    10000808:	d8f6                	sw	t4,112(sp)
    1000080a:	dafa                	sw	t5,116(sp)
    1000080c:	dcfe                	sw	t6,120(sp)
    1000080e:	0001c297          	auipc	t0,0x1c
    10000812:	b0a2a283          	lw	t0,-1270(t0) # 1001c318 <pxCurrentTCB>
    10000816:	0022a023          	sw	sp,0(t0)
    1000081a:	de86                	sw	ra,124(sp)
    1000081c:	3d9000ef          	jal	ra,100013f4 <vTaskSwitchContext>
    10000820:	0001c117          	auipc	sp,0x1c
    10000824:	af812103          	lw	sp,-1288(sp) # 1001c318 <pxCurrentTCB>
    10000828:	4102                	lw	sp,0(sp)
    1000082a:	52f6                	lw	t0,124(sp)
    1000082c:	34129073          	csrw	mepc,t0
    10000830:	03000293          	li	t0,48
    10000834:	3002a073          	csrs	mstatus,t0
    10000838:	4082                	lw	ra,0(sp)
    1000083a:	4232                	lw	tp,12(sp)
    1000083c:	42c2                	lw	t0,16(sp)
    1000083e:	4352                	lw	t1,20(sp)
    10000840:	43e2                	lw	t2,24(sp)
    10000842:	4472                	lw	s0,28(sp)
    10000844:	5482                	lw	s1,32(sp)
    10000846:	5512                	lw	a0,36(sp)
    10000848:	55a2                	lw	a1,40(sp)
    1000084a:	5632                	lw	a2,44(sp)
    1000084c:	56c2                	lw	a3,48(sp)
    1000084e:	5752                	lw	a4,52(sp)
    10000850:	57e2                	lw	a5,56(sp)
    10000852:	5872                	lw	a6,60(sp)
    10000854:	4886                	lw	a7,64(sp)
    10000856:	4916                	lw	s2,68(sp)
    10000858:	49a6                	lw	s3,72(sp)
    1000085a:	4a36                	lw	s4,76(sp)
    1000085c:	4ac6                	lw	s5,80(sp)
    1000085e:	4b56                	lw	s6,84(sp)
    10000860:	4be6                	lw	s7,88(sp)
    10000862:	4c76                	lw	s8,92(sp)
    10000864:	5c86                	lw	s9,96(sp)
    10000866:	5d16                	lw	s10,100(sp)
    10000868:	5da6                	lw	s11,104(sp)
    1000086a:	5e36                	lw	t3,108(sp)
    1000086c:	5ec6                	lw	t4,112(sp)
    1000086e:	5f56                	lw	t5,116(sp)
    10000870:	5fe6                	lw	t6,120(sp)
    10000872:	6109                	addi	sp,sp,128
    10000874:	30200073          	mret

0000000010000878 <xPortStartScheduler>:
    10000878:	2e0010ef          	jal	ra,10001b58 <vPortSetupTimer>
    1000087c:	0001c117          	auipc	sp,0x1c
    10000880:	a9c12103          	lw	sp,-1380(sp) # 1001c318 <pxCurrentTCB>
    10000884:	4102                	lw	sp,0(sp)
    10000886:	52f6                	lw	t0,124(sp)
    10000888:	34129073          	csrw	mepc,t0
    1000088c:	03000293          	li	t0,48
    10000890:	3002a073          	csrs	mstatus,t0
    10000894:	4082                	lw	ra,0(sp)
    10000896:	4232                	lw	tp,12(sp)
    10000898:	42c2                	lw	t0,16(sp)
    1000089a:	4352                	lw	t1,20(sp)
    1000089c:	43e2                	lw	t2,24(sp)
    1000089e:	4472                	lw	s0,28(sp)
    100008a0:	5482                	lw	s1,32(sp)
    100008a2:	5512                	lw	a0,36(sp)
    100008a4:	55a2                	lw	a1,40(sp)
    100008a6:	5632                	lw	a2,44(sp)
    100008a8:	56c2                	lw	a3,48(sp)
    100008aa:	5752                	lw	a4,52(sp)
    100008ac:	57e2                	lw	a5,56(sp)
    100008ae:	5872                	lw	a6,60(sp)
    100008b0:	4886                	lw	a7,64(sp)
    100008b2:	4916                	lw	s2,68(sp)
    100008b4:	49a6                	lw	s3,72(sp)
    100008b6:	4a36                	lw	s4,76(sp)
    100008b8:	4ac6                	lw	s5,80(sp)
    100008ba:	4b56                	lw	s6,84(sp)
    100008bc:	4be6                	lw	s7,88(sp)
    100008be:	4c76                	lw	s8,92(sp)
    100008c0:	5c86                	lw	s9,96(sp)
    100008c2:	5d16                	lw	s10,100(sp)
    100008c4:	5da6                	lw	s11,104(sp)
    100008c6:	5e36                	lw	t3,108(sp)
    100008c8:	5ec6                	lw	t4,112(sp)
    100008ca:	5f56                	lw	t5,116(sp)
    100008cc:	5fe6                	lw	t6,120(sp)
    100008ce:	6109                	addi	sp,sp,128
    100008d0:	30200073          	mret

00000000100008d4 <prvIsQueueEmpty>:
    100008d4:	7179                	addi	sp,sp,-48
    100008d6:	f406                	sd	ra,40(sp)
    100008d8:	f022                	sd	s0,32(sp)
    100008da:	1800                	addi	s0,sp,48
    100008dc:	fca43c23          	sd	a0,-40(s0)
    100008e0:	587000ef          	jal	ra,10001666 <vTaskEnterCritical>
    100008e4:	fd843783          	ld	a5,-40(s0)
    100008e8:	7bbc                	ld	a5,112(a5)
    100008ea:	e789                	bnez	a5,100008f4 <prvIsQueueEmpty+0x20>
    100008ec:	4785                	li	a5,1
    100008ee:	fef43423          	sd	a5,-24(s0)
    100008f2:	a019                	j	100008f8 <prvIsQueueEmpty+0x24>
    100008f4:	fe043423          	sd	zero,-24(s0)
    100008f8:	5a1000ef          	jal	ra,10001698 <vTaskExitCritical>
    100008fc:	fe843783          	ld	a5,-24(s0)
    10000900:	853e                	mv	a0,a5
    10000902:	70a2                	ld	ra,40(sp)
    10000904:	7402                	ld	s0,32(sp)
    10000906:	6145                	addi	sp,sp,48
    10000908:	8082                	ret

000000001000090a <xQueueGenericReset>:
    1000090a:	7179                	addi	sp,sp,-48
    1000090c:	f406                	sd	ra,40(sp)
    1000090e:	f022                	sd	s0,32(sp)
    10000910:	1800                	addi	s0,sp,48
    10000912:	fca43c23          	sd	a0,-40(s0)
    10000916:	fcb43823          	sd	a1,-48(s0)
    1000091a:	fd843783          	ld	a5,-40(s0)
    1000091e:	fef43423          	sd	a5,-24(s0)
    10000922:	fe843783          	ld	a5,-24(s0)
    10000926:	6398                	ld	a4,0(a5)
    10000928:	fe843783          	ld	a5,-24(s0)
    1000092c:	7fb4                	ld	a3,120(a5)
    1000092e:	fe843783          	ld	a5,-24(s0)
    10000932:	63dc                	ld	a5,128(a5)
    10000934:	02f687b3          	mul	a5,a3,a5
    10000938:	973e                	add	a4,a4,a5
    1000093a:	fe843783          	ld	a5,-24(s0)
    1000093e:	e798                	sd	a4,8(a5)
    10000940:	fe843783          	ld	a5,-24(s0)
    10000944:	0607b823          	sd	zero,112(a5)
    10000948:	fe843783          	ld	a5,-24(s0)
    1000094c:	6398                	ld	a4,0(a5)
    1000094e:	fe843783          	ld	a5,-24(s0)
    10000952:	eb98                	sd	a4,16(a5)
    10000954:	fe843783          	ld	a5,-24(s0)
    10000958:	6398                	ld	a4,0(a5)
    1000095a:	fe843783          	ld	a5,-24(s0)
    1000095e:	7fbc                	ld	a5,120(a5)
    10000960:	fff78693          	addi	a3,a5,-1
    10000964:	fe843783          	ld	a5,-24(s0)
    10000968:	63dc                	ld	a5,128(a5)
    1000096a:	02f687b3          	mul	a5,a3,a5
    1000096e:	973e                	add	a4,a4,a5
    10000970:	fe843783          	ld	a5,-24(s0)
    10000974:	ef98                	sd	a4,24(a5)
    10000976:	fe843783          	ld	a5,-24(s0)
    1000097a:	577d                	li	a4,-1
    1000097c:	e7d8                	sd	a4,136(a5)
    1000097e:	fe843783          	ld	a5,-24(s0)
    10000982:	577d                	li	a4,-1
    10000984:	ebd8                	sd	a4,144(a5)
    10000986:	fd043783          	ld	a5,-48(s0)
    1000098a:	e785                	bnez	a5,100009b2 <xQueueGenericReset+0xa8>
    1000098c:	fe843783          	ld	a5,-24(s0)
    10000990:	739c                	ld	a5,32(a5)
    10000992:	cf95                	beqz	a5,100009ce <xQueueGenericReset+0xc4>
    10000994:	fe843783          	ld	a5,-24(s0)
    10000998:	02078793          	addi	a5,a5,32
    1000099c:	853e                	mv	a0,a5
    1000099e:	391000ef          	jal	ra,1000152e <xTaskRemoveFromEventList>
    100009a2:	87aa                	mv	a5,a0
    100009a4:	873e                	mv	a4,a5
    100009a6:	4785                	li	a5,1
    100009a8:	02f71363          	bne	a4,a5,100009ce <xQueueGenericReset+0xc4>
    100009ac:	e23ff0ef          	jal	ra,100007ce <vPortYield>
    100009b0:	a839                	j	100009ce <xQueueGenericReset+0xc4>
    100009b2:	fe843783          	ld	a5,-24(s0)
    100009b6:	02078793          	addi	a5,a5,32
    100009ba:	853e                	mv	a0,a5
    100009bc:	b81ff0ef          	jal	ra,1000053c <vListInitialise>
    100009c0:	fe843783          	ld	a5,-24(s0)
    100009c4:	04878793          	addi	a5,a5,72
    100009c8:	853e                	mv	a0,a5
    100009ca:	b73ff0ef          	jal	ra,1000053c <vListInitialise>
    100009ce:	4785                	li	a5,1
    100009d0:	853e                	mv	a0,a5
    100009d2:	70a2                	ld	ra,40(sp)
    100009d4:	7402                	ld	s0,32(sp)
    100009d6:	6145                	addi	sp,sp,48
    100009d8:	8082                	ret

00000000100009da <xQueueGenericCreate>:
    100009da:	715d                	addi	sp,sp,-80
    100009dc:	e486                	sd	ra,72(sp)
    100009de:	e0a2                	sd	s0,64(sp)
    100009e0:	0880                	addi	s0,sp,80
    100009e2:	fca43423          	sd	a0,-56(s0)
    100009e6:	fcb43023          	sd	a1,-64(s0)
    100009ea:	87b2                	mv	a5,a2
    100009ec:	faf40fa3          	sb	a5,-65(s0)
    100009f0:	fe043023          	sd	zero,-32(s0)
    100009f4:	fc043783          	ld	a5,-64(s0)
    100009f8:	e781                	bnez	a5,10000a00 <xQueueGenericCreate+0x26>
    100009fa:	fe042623          	sw	zero,-20(s0)
    100009fe:	a839                	j	10000a1c <xQueueGenericCreate+0x42>
    10000a00:	fc843783          	ld	a5,-56(s0)
    10000a04:	0007871b          	sext.w	a4,a5
    10000a08:	fc043783          	ld	a5,-64(s0)
    10000a0c:	2781                	sext.w	a5,a5
    10000a0e:	02f707bb          	mulw	a5,a4,a5
    10000a12:	2781                	sext.w	a5,a5
    10000a14:	2781                	sext.w	a5,a5
    10000a16:	2785                	addiw	a5,a5,1
    10000a18:	fef42623          	sw	a5,-20(s0)
    10000a1c:	fec42783          	lw	a5,-20(s0)
    10000a20:	09878793          	addi	a5,a5,152
    10000a24:	853e                	mv	a0,a5
    10000a26:	855ff0ef          	jal	ra,1000027a <pvPortMalloc>
    10000a2a:	87aa                	mv	a5,a0
    10000a2c:	fcf43c23          	sd	a5,-40(s0)
    10000a30:	fd843783          	ld	a5,-40(s0)
    10000a34:	c7a1                	beqz	a5,10000a7c <xQueueGenericCreate+0xa2>
    10000a36:	fc043783          	ld	a5,-64(s0)
    10000a3a:	e799                	bnez	a5,10000a48 <xQueueGenericCreate+0x6e>
    10000a3c:	fd843783          	ld	a5,-40(s0)
    10000a40:	fd843703          	ld	a4,-40(s0)
    10000a44:	e398                	sd	a4,0(a5)
    10000a46:	a801                	j	10000a56 <xQueueGenericCreate+0x7c>
    10000a48:	fd843783          	ld	a5,-40(s0)
    10000a4c:	09878713          	addi	a4,a5,152
    10000a50:	fd843783          	ld	a5,-40(s0)
    10000a54:	e398                	sd	a4,0(a5)
    10000a56:	fd843783          	ld	a5,-40(s0)
    10000a5a:	fc843703          	ld	a4,-56(s0)
    10000a5e:	ffb8                	sd	a4,120(a5)
    10000a60:	fd843783          	ld	a5,-40(s0)
    10000a64:	fc043703          	ld	a4,-64(s0)
    10000a68:	e3d8                	sd	a4,128(a5)
    10000a6a:	4585                	li	a1,1
    10000a6c:	fd843503          	ld	a0,-40(s0)
    10000a70:	e9bff0ef          	jal	ra,1000090a <xQueueGenericReset>
    10000a74:	fd843783          	ld	a5,-40(s0)
    10000a78:	fef43023          	sd	a5,-32(s0)
    10000a7c:	fe043783          	ld	a5,-32(s0)
    10000a80:	853e                	mv	a0,a5
    10000a82:	60a6                	ld	ra,72(sp)
    10000a84:	6406                	ld	s0,64(sp)
    10000a86:	6161                	addi	sp,sp,80
    10000a88:	8082                	ret

0000000010000a8a <vQueueAddToRegistry>:
    10000a8a:	7179                	addi	sp,sp,-48
    10000a8c:	f422                	sd	s0,40(sp)
    10000a8e:	1800                	addi	s0,sp,48
    10000a90:	fca43c23          	sd	a0,-40(s0)
    10000a94:	fcb43823          	sd	a1,-48(s0)
    10000a98:	fe043423          	sd	zero,-24(s0)
    10000a9c:	a0b9                	j	10000aea <vQueueAddToRegistry+0x60>
    10000a9e:	1001c7b7          	lui	a5,0x1001c
    10000aa2:	29078713          	addi	a4,a5,656 # 1001c290 <xQueueRegistry>
    10000aa6:	fe843783          	ld	a5,-24(s0)
    10000aaa:	0792                	slli	a5,a5,0x4
    10000aac:	97ba                	add	a5,a5,a4
    10000aae:	639c                	ld	a5,0(a5)
    10000ab0:	eb85                	bnez	a5,10000ae0 <vQueueAddToRegistry+0x56>
    10000ab2:	1001c7b7          	lui	a5,0x1001c
    10000ab6:	29078713          	addi	a4,a5,656 # 1001c290 <xQueueRegistry>
    10000aba:	fe843783          	ld	a5,-24(s0)
    10000abe:	0792                	slli	a5,a5,0x4
    10000ac0:	97ba                	add	a5,a5,a4
    10000ac2:	fd043703          	ld	a4,-48(s0)
    10000ac6:	e398                	sd	a4,0(a5)
    10000ac8:	1001c7b7          	lui	a5,0x1001c
    10000acc:	29078713          	addi	a4,a5,656 # 1001c290 <xQueueRegistry>
    10000ad0:	fe843783          	ld	a5,-24(s0)
    10000ad4:	0792                	slli	a5,a5,0x4
    10000ad6:	97ba                	add	a5,a5,a4
    10000ad8:	fd843703          	ld	a4,-40(s0)
    10000adc:	e798                	sd	a4,8(a5)
    10000ade:	a821                	j	10000af6 <vQueueAddToRegistry+0x6c>
    10000ae0:	fe843783          	ld	a5,-24(s0)
    10000ae4:	0785                	addi	a5,a5,1
    10000ae6:	fef43423          	sd	a5,-24(s0)
    10000aea:	fe843703          	ld	a4,-24(s0)
    10000aee:	479d                	li	a5,7
    10000af0:	fae7f7e3          	bgeu	a5,a4,10000a9e <vQueueAddToRegistry+0x14>
    10000af4:	0001                	nop
    10000af6:	0001                	nop
    10000af8:	7422                	ld	s0,40(sp)
    10000afa:	6145                	addi	sp,sp,48
    10000afc:	8082                	ret

0000000010000afe <prvCopyDataToQueue>:
    10000afe:	7139                	addi	sp,sp,-64
    10000b00:	fc06                	sd	ra,56(sp)
    10000b02:	f822                	sd	s0,48(sp)
    10000b04:	0080                	addi	s0,sp,64
    10000b06:	fca43c23          	sd	a0,-40(s0)
    10000b0a:	fcb43823          	sd	a1,-48(s0)
    10000b0e:	fcc43423          	sd	a2,-56(s0)
    10000b12:	fe043423          	sd	zero,-24(s0)
    10000b16:	fd843783          	ld	a5,-40(s0)
    10000b1a:	63dc                	ld	a5,128(a5)
    10000b1c:	cbe1                	beqz	a5,10000bec <prvCopyDataToQueue+0xee>
    10000b1e:	fc843783          	ld	a5,-56(s0)
    10000b22:	e7b9                	bnez	a5,10000b70 <prvCopyDataToQueue+0x72>
    10000b24:	fd843783          	ld	a5,-40(s0)
    10000b28:	6b98                	ld	a4,16(a5)
    10000b2a:	fd843783          	ld	a5,-40(s0)
    10000b2e:	63dc                	ld	a5,128(a5)
    10000b30:	2781                	sext.w	a5,a5
    10000b32:	863e                	mv	a2,a5
    10000b34:	fd043583          	ld	a1,-48(s0)
    10000b38:	853a                	mv	a0,a4
    10000b3a:	995ff0ef          	jal	ra,100004ce <memcpy>
    10000b3e:	fd843783          	ld	a5,-40(s0)
    10000b42:	6b98                	ld	a4,16(a5)
    10000b44:	fd843783          	ld	a5,-40(s0)
    10000b48:	63dc                	ld	a5,128(a5)
    10000b4a:	973e                	add	a4,a4,a5
    10000b4c:	fd843783          	ld	a5,-40(s0)
    10000b50:	eb98                	sd	a4,16(a5)
    10000b52:	fd843783          	ld	a5,-40(s0)
    10000b56:	6b98                	ld	a4,16(a5)
    10000b58:	fd843783          	ld	a5,-40(s0)
    10000b5c:	679c                	ld	a5,8(a5)
    10000b5e:	08f76763          	bltu	a4,a5,10000bec <prvCopyDataToQueue+0xee>
    10000b62:	fd843783          	ld	a5,-40(s0)
    10000b66:	6398                	ld	a4,0(a5)
    10000b68:	fd843783          	ld	a5,-40(s0)
    10000b6c:	eb98                	sd	a4,16(a5)
    10000b6e:	a8bd                	j	10000bec <prvCopyDataToQueue+0xee>
    10000b70:	fd843783          	ld	a5,-40(s0)
    10000b74:	6f98                	ld	a4,24(a5)
    10000b76:	fd843783          	ld	a5,-40(s0)
    10000b7a:	63dc                	ld	a5,128(a5)
    10000b7c:	2781                	sext.w	a5,a5
    10000b7e:	863e                	mv	a2,a5
    10000b80:	fd043583          	ld	a1,-48(s0)
    10000b84:	853a                	mv	a0,a4
    10000b86:	949ff0ef          	jal	ra,100004ce <memcpy>
    10000b8a:	fd843783          	ld	a5,-40(s0)
    10000b8e:	6f98                	ld	a4,24(a5)
    10000b90:	fd843783          	ld	a5,-40(s0)
    10000b94:	63dc                	ld	a5,128(a5)
    10000b96:	40f007b3          	neg	a5,a5
    10000b9a:	973e                	add	a4,a4,a5
    10000b9c:	fd843783          	ld	a5,-40(s0)
    10000ba0:	ef98                	sd	a4,24(a5)
    10000ba2:	fd843783          	ld	a5,-40(s0)
    10000ba6:	6f98                	ld	a4,24(a5)
    10000ba8:	fd843783          	ld	a5,-40(s0)
    10000bac:	639c                	ld	a5,0(a5)
    10000bae:	00f77e63          	bgeu	a4,a5,10000bca <prvCopyDataToQueue+0xcc>
    10000bb2:	fd843783          	ld	a5,-40(s0)
    10000bb6:	6798                	ld	a4,8(a5)
    10000bb8:	fd843783          	ld	a5,-40(s0)
    10000bbc:	63dc                	ld	a5,128(a5)
    10000bbe:	40f007b3          	neg	a5,a5
    10000bc2:	973e                	add	a4,a4,a5
    10000bc4:	fd843783          	ld	a5,-40(s0)
    10000bc8:	ef98                	sd	a4,24(a5)
    10000bca:	fc843703          	ld	a4,-56(s0)
    10000bce:	4789                	li	a5,2
    10000bd0:	00f71e63          	bne	a4,a5,10000bec <prvCopyDataToQueue+0xee>
    10000bd4:	fd843783          	ld	a5,-40(s0)
    10000bd8:	7bbc                	ld	a5,112(a5)
    10000bda:	cb89                	beqz	a5,10000bec <prvCopyDataToQueue+0xee>
    10000bdc:	fd843783          	ld	a5,-40(s0)
    10000be0:	7bbc                	ld	a5,112(a5)
    10000be2:	fff78713          	addi	a4,a5,-1
    10000be6:	fd843783          	ld	a5,-40(s0)
    10000bea:	fbb8                	sd	a4,112(a5)
    10000bec:	fd843783          	ld	a5,-40(s0)
    10000bf0:	7bbc                	ld	a5,112(a5)
    10000bf2:	00178713          	addi	a4,a5,1
    10000bf6:	fd843783          	ld	a5,-40(s0)
    10000bfa:	fbb8                	sd	a4,112(a5)
    10000bfc:	fe843783          	ld	a5,-24(s0)
    10000c00:	853e                	mv	a0,a5
    10000c02:	70e2                	ld	ra,56(sp)
    10000c04:	7442                	ld	s0,48(sp)
    10000c06:	6121                	addi	sp,sp,64
    10000c08:	8082                	ret

0000000010000c0a <xQueueGenericSend>:
    10000c0a:	711d                	addi	sp,sp,-96
    10000c0c:	ec86                	sd	ra,88(sp)
    10000c0e:	e8a2                	sd	s0,80(sp)
    10000c10:	1080                	addi	s0,sp,96
    10000c12:	faa43c23          	sd	a0,-72(s0)
    10000c16:	fab43823          	sd	a1,-80(s0)
    10000c1a:	87b2                	mv	a5,a2
    10000c1c:	fad43023          	sd	a3,-96(s0)
    10000c20:	faf42623          	sw	a5,-84(s0)
    10000c24:	fe043423          	sd	zero,-24(s0)
    10000c28:	fb843783          	ld	a5,-72(s0)
    10000c2c:	fef43023          	sd	a5,-32(s0)
    10000c30:	fe043783          	ld	a5,-32(s0)
    10000c34:	7bb8                	ld	a4,112(a5)
    10000c36:	fe043783          	ld	a5,-32(s0)
    10000c3a:	7fbc                	ld	a5,120(a5)
    10000c3c:	00f76763          	bltu	a4,a5,10000c4a <xQueueGenericSend+0x40>
    10000c40:	fa043703          	ld	a4,-96(s0)
    10000c44:	4789                	li	a5,2
    10000c46:	04f71863          	bne	a4,a5,10000c96 <xQueueGenericSend+0x8c>
    10000c4a:	fa043603          	ld	a2,-96(s0)
    10000c4e:	fb043583          	ld	a1,-80(s0)
    10000c52:	fe043503          	ld	a0,-32(s0)
    10000c56:	ea9ff0ef          	jal	ra,10000afe <prvCopyDataToQueue>
    10000c5a:	fca43c23          	sd	a0,-40(s0)
    10000c5e:	fe043783          	ld	a5,-32(s0)
    10000c62:	67bc                	ld	a5,72(a5)
    10000c64:	c385                	beqz	a5,10000c84 <xQueueGenericSend+0x7a>
    10000c66:	fe043783          	ld	a5,-32(s0)
    10000c6a:	04878793          	addi	a5,a5,72
    10000c6e:	853e                	mv	a0,a5
    10000c70:	0bf000ef          	jal	ra,1000152e <xTaskRemoveFromEventList>
    10000c74:	87aa                	mv	a5,a0
    10000c76:	873e                	mv	a4,a5
    10000c78:	4785                	li	a5,1
    10000c7a:	00f71a63          	bne	a4,a5,10000c8e <xQueueGenericSend+0x84>
    10000c7e:	b51ff0ef          	jal	ra,100007ce <vPortYield>
    10000c82:	a031                	j	10000c8e <xQueueGenericSend+0x84>
    10000c84:	fd843783          	ld	a5,-40(s0)
    10000c88:	c399                	beqz	a5,10000c8e <xQueueGenericSend+0x84>
    10000c8a:	b45ff0ef          	jal	ra,100007ce <vPortYield>
    10000c8e:	20b000ef          	jal	ra,10001698 <vTaskExitCritical>
    10000c92:	4785                	li	a5,1
    10000c94:	a88d                	j	10000d06 <xQueueGenericSend+0xfc>
    10000c96:	fac42783          	lw	a5,-84(s0)
    10000c9a:	e789                	bnez	a5,10000ca4 <xQueueGenericSend+0x9a>
    10000c9c:	1fd000ef          	jal	ra,10001698 <vTaskExitCritical>
    10000ca0:	4781                	li	a5,0
    10000ca2:	a095                	j	10000d06 <xQueueGenericSend+0xfc>
    10000ca4:	fe843783          	ld	a5,-24(s0)
    10000ca8:	e781                	bnez	a5,10000cb0 <xQueueGenericSend+0xa6>
    10000caa:	4785                	li	a5,1
    10000cac:	fef43423          	sd	a5,-24(s0)
    10000cb0:	1e9000ef          	jal	ra,10001698 <vTaskExitCritical>
    10000cb4:	191000ef          	jal	ra,10001644 <vTaskSuspendAll>
    10000cb8:	fac40713          	addi	a4,s0,-84
    10000cbc:	fc840793          	addi	a5,s0,-56
    10000cc0:	85ba                	mv	a1,a4
    10000cc2:	853e                	mv	a0,a5
    10000cc4:	249000ef          	jal	ra,1000170c <xTaskCheckForTimeOut>
    10000cc8:	87aa                	mv	a5,a0
    10000cca:	eb9d                	bnez	a5,10000d00 <xQueueGenericSend+0xf6>
    10000ccc:	fe043503          	ld	a0,-32(s0)
    10000cd0:	1e6000ef          	jal	ra,10000eb6 <prvIsQueueFull>
    10000cd4:	87aa                	mv	a5,a0
    10000cd6:	c395                	beqz	a5,10000cfa <xQueueGenericSend+0xf0>
    10000cd8:	fe043783          	ld	a5,-32(s0)
    10000cdc:	02078793          	addi	a5,a5,32
    10000ce0:	fac42703          	lw	a4,-84(s0)
    10000ce4:	85ba                	mv	a1,a4
    10000ce6:	853e                	mv	a0,a5
    10000ce8:	371000ef          	jal	ra,10001858 <vTaskPlaceOnEventList>
    10000cec:	284000ef          	jal	ra,10000f70 <xTaskResumeAll>
    10000cf0:	87aa                	mv	a5,a0
    10000cf2:	ff9d                	bnez	a5,10000c30 <xQueueGenericSend+0x26>
    10000cf4:	adbff0ef          	jal	ra,100007ce <vPortYield>
    10000cf8:	bf25                	j	10000c30 <xQueueGenericSend+0x26>
    10000cfa:	276000ef          	jal	ra,10000f70 <xTaskResumeAll>
    10000cfe:	bf0d                	j	10000c30 <xQueueGenericSend+0x26>
    10000d00:	270000ef          	jal	ra,10000f70 <xTaskResumeAll>
    10000d04:	4781                	li	a5,0
    10000d06:	853e                	mv	a0,a5
    10000d08:	60e6                	ld	ra,88(sp)
    10000d0a:	6446                	ld	s0,80(sp)
    10000d0c:	6125                	addi	sp,sp,96
    10000d0e:	8082                	ret

0000000010000d10 <prvCopyDataFromQueue>:
    10000d10:	1101                	addi	sp,sp,-32
    10000d12:	ec06                	sd	ra,24(sp)
    10000d14:	e822                	sd	s0,16(sp)
    10000d16:	1000                	addi	s0,sp,32
    10000d18:	fea43423          	sd	a0,-24(s0)
    10000d1c:	feb43023          	sd	a1,-32(s0)
    10000d20:	fe843783          	ld	a5,-24(s0)
    10000d24:	63dc                	ld	a5,128(a5)
    10000d26:	c7b1                	beqz	a5,10000d72 <prvCopyDataFromQueue+0x62>
    10000d28:	fe843783          	ld	a5,-24(s0)
    10000d2c:	6f98                	ld	a4,24(a5)
    10000d2e:	fe843783          	ld	a5,-24(s0)
    10000d32:	63dc                	ld	a5,128(a5)
    10000d34:	973e                	add	a4,a4,a5
    10000d36:	fe843783          	ld	a5,-24(s0)
    10000d3a:	ef98                	sd	a4,24(a5)
    10000d3c:	fe843783          	ld	a5,-24(s0)
    10000d40:	6f98                	ld	a4,24(a5)
    10000d42:	fe843783          	ld	a5,-24(s0)
    10000d46:	679c                	ld	a5,8(a5)
    10000d48:	00f76863          	bltu	a4,a5,10000d58 <prvCopyDataFromQueue+0x48>
    10000d4c:	fe843783          	ld	a5,-24(s0)
    10000d50:	6398                	ld	a4,0(a5)
    10000d52:	fe843783          	ld	a5,-24(s0)
    10000d56:	ef98                	sd	a4,24(a5)
    10000d58:	fe843783          	ld	a5,-24(s0)
    10000d5c:	6f98                	ld	a4,24(a5)
    10000d5e:	fe843783          	ld	a5,-24(s0)
    10000d62:	63dc                	ld	a5,128(a5)
    10000d64:	2781                	sext.w	a5,a5
    10000d66:	863e                	mv	a2,a5
    10000d68:	85ba                	mv	a1,a4
    10000d6a:	fe043503          	ld	a0,-32(s0)
    10000d6e:	f60ff0ef          	jal	ra,100004ce <memcpy>
    10000d72:	0001                	nop
    10000d74:	60e2                	ld	ra,24(sp)
    10000d76:	6442                	ld	s0,16(sp)
    10000d78:	6105                	addi	sp,sp,32
    10000d7a:	8082                	ret

0000000010000d7c <xQueueGenericReceive>:
    10000d7c:	711d                	addi	sp,sp,-96
    10000d7e:	ec86                	sd	ra,88(sp)
    10000d80:	e8a2                	sd	s0,80(sp)
    10000d82:	1080                	addi	s0,sp,96
    10000d84:	faa43c23          	sd	a0,-72(s0)
    10000d88:	fab43823          	sd	a1,-80(s0)
    10000d8c:	87b2                	mv	a5,a2
    10000d8e:	fad43023          	sd	a3,-96(s0)
    10000d92:	faf42623          	sw	a5,-84(s0)
    10000d96:	fe043423          	sd	zero,-24(s0)
    10000d9a:	fb843783          	ld	a5,-72(s0)
    10000d9e:	fef43023          	sd	a5,-32(s0)
    10000da2:	0c5000ef          	jal	ra,10001666 <vTaskEnterCritical>
    10000da6:	fe043783          	ld	a5,-32(s0)
    10000daa:	7bbc                	ld	a5,112(a5)
    10000dac:	c3d1                	beqz	a5,10000e30 <xQueueGenericReceive+0xb4>
    10000dae:	fe043783          	ld	a5,-32(s0)
    10000db2:	6f9c                	ld	a5,24(a5)
    10000db4:	fcf43c23          	sd	a5,-40(s0)
    10000db8:	fb043583          	ld	a1,-80(s0)
    10000dbc:	fe043503          	ld	a0,-32(s0)
    10000dc0:	f51ff0ef          	jal	ra,10000d10 <prvCopyDataFromQueue>
    10000dc4:	fa043783          	ld	a5,-96(s0)
    10000dc8:	ef85                	bnez	a5,10000e00 <xQueueGenericReceive+0x84>
    10000dca:	fe043783          	ld	a5,-32(s0)
    10000dce:	7bbc                	ld	a5,112(a5)
    10000dd0:	fff78713          	addi	a4,a5,-1
    10000dd4:	fe043783          	ld	a5,-32(s0)
    10000dd8:	fbb8                	sd	a4,112(a5)
    10000dda:	fe043783          	ld	a5,-32(s0)
    10000dde:	739c                	ld	a5,32(a5)
    10000de0:	c7a1                	beqz	a5,10000e28 <xQueueGenericReceive+0xac>
    10000de2:	fe043783          	ld	a5,-32(s0)
    10000de6:	02078793          	addi	a5,a5,32
    10000dea:	853e                	mv	a0,a5
    10000dec:	742000ef          	jal	ra,1000152e <xTaskRemoveFromEventList>
    10000df0:	87aa                	mv	a5,a0
    10000df2:	873e                	mv	a4,a5
    10000df4:	4785                	li	a5,1
    10000df6:	02f71963          	bne	a4,a5,10000e28 <xQueueGenericReceive+0xac>
    10000dfa:	9d5ff0ef          	jal	ra,100007ce <vPortYield>
    10000dfe:	a02d                	j	10000e28 <xQueueGenericReceive+0xac>
    10000e00:	fe043783          	ld	a5,-32(s0)
    10000e04:	fd843703          	ld	a4,-40(s0)
    10000e08:	ef98                	sd	a4,24(a5)
    10000e0a:	fe043783          	ld	a5,-32(s0)
    10000e0e:	67bc                	ld	a5,72(a5)
    10000e10:	cf81                	beqz	a5,10000e28 <xQueueGenericReceive+0xac>
    10000e12:	fe043783          	ld	a5,-32(s0)
    10000e16:	04878793          	addi	a5,a5,72
    10000e1a:	853e                	mv	a0,a5
    10000e1c:	712000ef          	jal	ra,1000152e <xTaskRemoveFromEventList>
    10000e20:	87aa                	mv	a5,a0
    10000e22:	c399                	beqz	a5,10000e28 <xQueueGenericReceive+0xac>
    10000e24:	9abff0ef          	jal	ra,100007ce <vPortYield>
    10000e28:	071000ef          	jal	ra,10001698 <vTaskExitCritical>
    10000e2c:	4785                	li	a5,1
    10000e2e:	a8bd                	j	10000eac <xQueueGenericReceive+0x130>
    10000e30:	fac42783          	lw	a5,-84(s0)
    10000e34:	e789                	bnez	a5,10000e3e <xQueueGenericReceive+0xc2>
    10000e36:	063000ef          	jal	ra,10001698 <vTaskExitCritical>
    10000e3a:	4781                	li	a5,0
    10000e3c:	a885                	j	10000eac <xQueueGenericReceive+0x130>
    10000e3e:	fe843783          	ld	a5,-24(s0)
    10000e42:	eb89                	bnez	a5,10000e54 <xQueueGenericReceive+0xd8>
    10000e44:	fc840793          	addi	a5,s0,-56
    10000e48:	853e                	mv	a0,a5
    10000e4a:	091000ef          	jal	ra,100016da <vTaskSetTimeOutState>
    10000e4e:	4785                	li	a5,1
    10000e50:	fef43423          	sd	a5,-24(s0)
    10000e54:	045000ef          	jal	ra,10001698 <vTaskExitCritical>
    10000e58:	7ec000ef          	jal	ra,10001644 <vTaskSuspendAll>
    10000e5c:	fac40713          	addi	a4,s0,-84
    10000e60:	fc840793          	addi	a5,s0,-56
    10000e64:	85ba                	mv	a1,a4
    10000e66:	853e                	mv	a0,a5
    10000e68:	0a5000ef          	jal	ra,1000170c <xTaskCheckForTimeOut>
    10000e6c:	87aa                	mv	a5,a0
    10000e6e:	ef85                	bnez	a5,10000ea6 <xQueueGenericReceive+0x12a>
    10000e70:	fe043503          	ld	a0,-32(s0)
    10000e74:	a61ff0ef          	jal	ra,100008d4 <prvIsQueueEmpty>
    10000e78:	87aa                	mv	a5,a0
    10000e7a:	c39d                	beqz	a5,10000ea0 <xQueueGenericReceive+0x124>
    10000e7c:	fe043783          	ld	a5,-32(s0)
    10000e80:	04878793          	addi	a5,a5,72
    10000e84:	fac42703          	lw	a4,-84(s0)
    10000e88:	85ba                	mv	a1,a4
    10000e8a:	853e                	mv	a0,a5
    10000e8c:	1cd000ef          	jal	ra,10001858 <vTaskPlaceOnEventList>
    10000e90:	0e0000ef          	jal	ra,10000f70 <xTaskResumeAll>
    10000e94:	87aa                	mv	a5,a0
    10000e96:	f00796e3          	bnez	a5,10000da2 <xQueueGenericReceive+0x26>
    10000e9a:	935ff0ef          	jal	ra,100007ce <vPortYield>
    10000e9e:	b711                	j	10000da2 <xQueueGenericReceive+0x26>
    10000ea0:	0d0000ef          	jal	ra,10000f70 <xTaskResumeAll>
    10000ea4:	bdfd                	j	10000da2 <xQueueGenericReceive+0x26>
    10000ea6:	0ca000ef          	jal	ra,10000f70 <xTaskResumeAll>
    10000eaa:	4781                	li	a5,0
    10000eac:	853e                	mv	a0,a5
    10000eae:	60e6                	ld	ra,88(sp)
    10000eb0:	6446                	ld	s0,80(sp)
    10000eb2:	6125                	addi	sp,sp,96
    10000eb4:	8082                	ret

0000000010000eb6 <prvIsQueueFull>:
    10000eb6:	7179                	addi	sp,sp,-48
    10000eb8:	f406                	sd	ra,40(sp)
    10000eba:	f022                	sd	s0,32(sp)
    10000ebc:	1800                	addi	s0,sp,48
    10000ebe:	fca43c23          	sd	a0,-40(s0)
    10000ec2:	7a4000ef          	jal	ra,10001666 <vTaskEnterCritical>
    10000ec6:	fd843783          	ld	a5,-40(s0)
    10000eca:	7bb8                	ld	a4,112(a5)
    10000ecc:	fd843783          	ld	a5,-40(s0)
    10000ed0:	7fbc                	ld	a5,120(a5)
    10000ed2:	00f71663          	bne	a4,a5,10000ede <prvIsQueueFull+0x28>
    10000ed6:	4785                	li	a5,1
    10000ed8:	fef43423          	sd	a5,-24(s0)
    10000edc:	a019                	j	10000ee2 <prvIsQueueFull+0x2c>
    10000ede:	fe043423          	sd	zero,-24(s0)
    10000ee2:	7b6000ef          	jal	ra,10001698 <vTaskExitCritical>
    10000ee6:	fe843783          	ld	a5,-24(s0)
    10000eea:	853e                	mv	a0,a5
    10000eec:	70a2                	ld	ra,40(sp)
    10000eee:	7402                	ld	s0,32(sp)
    10000ef0:	6145                	addi	sp,sp,48
    10000ef2:	8082                	ret

0000000010000ef4 <xQueueGenericSendFromISR>:
    10000ef4:	7179                	addi	sp,sp,-48
    10000ef6:	f422                	sd	s0,40(sp)
    10000ef8:	1800                	addi	s0,sp,48
    10000efa:	fea43423          	sd	a0,-24(s0)
    10000efe:	feb43023          	sd	a1,-32(s0)
    10000f02:	fcc43c23          	sd	a2,-40(s0)
    10000f06:	fcd43823          	sd	a3,-48(s0)
    10000f0a:	0001                	nop
    10000f0c:	853e                	mv	a0,a5
    10000f0e:	7422                	ld	s0,40(sp)
    10000f10:	6145                	addi	sp,sp,48
    10000f12:	8082                	ret

0000000010000f14 <vApplicationStackOverflowHook>:
    10000f14:	1101                	addi	sp,sp,-32
    10000f16:	ec22                	sd	s0,24(sp)
    10000f18:	1000                	addi	s0,sp,32
    10000f1a:	fea43423          	sd	a0,-24(s0)
    10000f1e:	feb43023          	sd	a1,-32(s0)
    10000f22:	a001                	j	10000f22 <vApplicationStackOverflowHook+0xe>

0000000010000f24 <prvResetNextTaskUnblockTime>:
    10000f24:	1101                	addi	sp,sp,-32
    10000f26:	ec22                	sd	s0,24(sp)
    10000f28:	1000                	addi	s0,sp,32
    10000f2a:	1001c7b7          	lui	a5,0x1001c
    10000f2e:	1807b783          	ld	a5,384(a5) # 1001c180 <pxDelayedTaskList>
    10000f32:	639c                	ld	a5,0(a5)
    10000f34:	e399                	bnez	a5,10000f3a <prvResetNextTaskUnblockTime+0x16>
    10000f36:	4785                	li	a5,1
    10000f38:	a011                	j	10000f3c <prvResetNextTaskUnblockTime+0x18>
    10000f3a:	4781                	li	a5,0
    10000f3c:	c799                	beqz	a5,10000f4a <prvResetNextTaskUnblockTime+0x26>
    10000f3e:	1001c7b7          	lui	a5,0x1001c
    10000f42:	577d                	li	a4,-1
    10000f44:	20e7a823          	sw	a4,528(a5) # 1001c210 <xNextTaskUnblockTime>
    10000f48:	a005                	j	10000f68 <prvResetNextTaskUnblockTime+0x44>
    10000f4a:	1001c7b7          	lui	a5,0x1001c
    10000f4e:	1807b783          	ld	a5,384(a5) # 1001c180 <pxDelayedTaskList>
    10000f52:	6f9c                	ld	a5,24(a5)
    10000f54:	6f9c                	ld	a5,24(a5)
    10000f56:	fef43423          	sd	a5,-24(s0)
    10000f5a:	fe843783          	ld	a5,-24(s0)
    10000f5e:	4798                	lw	a4,8(a5)
    10000f60:	1001c7b7          	lui	a5,0x1001c
    10000f64:	20e7a823          	sw	a4,528(a5) # 1001c210 <xNextTaskUnblockTime>
    10000f68:	0001                	nop
    10000f6a:	6462                	ld	s0,24(sp)
    10000f6c:	6105                	addi	sp,sp,32
    10000f6e:	8082                	ret

0000000010000f70 <xTaskResumeAll>:
    10000f70:	1101                	addi	sp,sp,-32
    10000f72:	ec06                	sd	ra,24(sp)
    10000f74:	e822                	sd	s0,16(sp)
    10000f76:	1000                	addi	s0,sp,32
    10000f78:	fe043423          	sd	zero,-24(s0)
    10000f7c:	6ea000ef          	jal	ra,10001666 <vTaskEnterCritical>
    10000f80:	1001c7b7          	lui	a5,0x1001c
    10000f84:	0507b783          	ld	a5,80(a5) # 1001c050 <uxSchedulerSuspended>
    10000f88:	fff78713          	addi	a4,a5,-1
    10000f8c:	1001c7b7          	lui	a5,0x1001c
    10000f90:	04e7b823          	sd	a4,80(a5) # 1001c050 <uxSchedulerSuspended>
    10000f94:	1001c7b7          	lui	a5,0x1001c
    10000f98:	0507b783          	ld	a5,80(a5) # 1001c050 <uxSchedulerSuspended>
    10000f9c:	ebf9                	bnez	a5,10001072 <xTaskResumeAll+0x102>
    10000f9e:	1001c7b7          	lui	a5,0x1001c
    10000fa2:	1b87b783          	ld	a5,440(a5) # 1001c1b8 <uxCurrentNumberOfTasks>
    10000fa6:	c7f1                	beqz	a5,10001072 <xTaskResumeAll+0x102>
    10000fa8:	a885                	j	10001018 <xTaskResumeAll+0xa8>
    10000faa:	1001c7b7          	lui	a5,0x1001c
    10000fae:	19078793          	addi	a5,a5,400 # 1001c190 <xPendingReadyList>
    10000fb2:	6f9c                	ld	a5,24(a5)
    10000fb4:	6f9c                	ld	a5,24(a5)
    10000fb6:	fef43023          	sd	a5,-32(s0)
    10000fba:	fe043783          	ld	a5,-32(s0)
    10000fbe:	03078793          	addi	a5,a5,48
    10000fc2:	853e                	mv	a0,a5
    10000fc4:	eecff0ef          	jal	ra,100006b0 <uxListRemove>
    10000fc8:	fe043783          	ld	a5,-32(s0)
    10000fcc:	07a1                	addi	a5,a5,8
    10000fce:	853e                	mv	a0,a5
    10000fd0:	ee0ff0ef          	jal	ra,100006b0 <uxListRemove>
    10000fd4:	fe043783          	ld	a5,-32(s0)
    10000fd8:	6fb8                	ld	a4,88(a5)
    10000fda:	87ba                	mv	a5,a4
    10000fdc:	078a                	slli	a5,a5,0x2
    10000fde:	97ba                	add	a5,a5,a4
    10000fe0:	078e                	slli	a5,a5,0x3
    10000fe2:	1001c737          	lui	a4,0x1001c
    10000fe6:	06870713          	addi	a4,a4,104 # 1001c068 <pxReadyTasksLists>
    10000fea:	973e                	add	a4,a4,a5
    10000fec:	fe043783          	ld	a5,-32(s0)
    10000ff0:	07a1                	addi	a5,a5,8
    10000ff2:	85be                	mv	a1,a5
    10000ff4:	853a                	mv	a0,a4
    10000ff6:	e54ff0ef          	jal	ra,1000064a <vListInsertEnd>
    10000ffa:	fe043783          	ld	a5,-32(s0)
    10000ffe:	6fb8                	ld	a4,88(a5)
    10001000:	1001c7b7          	lui	a5,0x1001c
    10001004:	3187b783          	ld	a5,792(a5) # 1001c318 <pxCurrentTCB>
    10001008:	6fbc                	ld	a5,88(a5)
    1000100a:	00f76763          	bltu	a4,a5,10001018 <xTaskResumeAll+0xa8>
    1000100e:	1001c7b7          	lui	a5,0x1001c
    10001012:	4705                	li	a4,1
    10001014:	1ee7bc23          	sd	a4,504(a5) # 1001c1f8 <xYieldPending>
    10001018:	1001c7b7          	lui	a5,0x1001c
    1000101c:	19078793          	addi	a5,a5,400 # 1001c190 <xPendingReadyList>
    10001020:	639c                	ld	a5,0(a5)
    10001022:	f7c1                	bnez	a5,10000faa <xTaskResumeAll+0x3a>
    10001024:	1001c7b7          	lui	a5,0x1001c
    10001028:	1f07b783          	ld	a5,496(a5) # 1001c1f0 <uxPendedTicks>
    1000102c:	cb95                	beqz	a5,10001060 <xTaskResumeAll+0xf0>
    1000102e:	a025                	j	10001056 <xTaskResumeAll+0xe6>
    10001030:	0b1000ef          	jal	ra,100018e0 <xTaskIncrementTick>
    10001034:	87aa                	mv	a5,a0
    10001036:	c791                	beqz	a5,10001042 <xTaskResumeAll+0xd2>
    10001038:	1001c7b7          	lui	a5,0x1001c
    1000103c:	4705                	li	a4,1
    1000103e:	1ee7bc23          	sd	a4,504(a5) # 1001c1f8 <xYieldPending>
    10001042:	1001c7b7          	lui	a5,0x1001c
    10001046:	1f07b783          	ld	a5,496(a5) # 1001c1f0 <uxPendedTicks>
    1000104a:	fff78713          	addi	a4,a5,-1
    1000104e:	1001c7b7          	lui	a5,0x1001c
    10001052:	1ee7b823          	sd	a4,496(a5) # 1001c1f0 <uxPendedTicks>
    10001056:	1001c7b7          	lui	a5,0x1001c
    1000105a:	1f07b783          	ld	a5,496(a5) # 1001c1f0 <uxPendedTicks>
    1000105e:	fbe9                	bnez	a5,10001030 <xTaskResumeAll+0xc0>
    10001060:	1001c7b7          	lui	a5,0x1001c
    10001064:	1f87b703          	ld	a4,504(a5) # 1001c1f8 <xYieldPending>
    10001068:	4785                	li	a5,1
    1000106a:	00f71463          	bne	a4,a5,10001072 <xTaskResumeAll+0x102>
    1000106e:	f60ff0ef          	jal	ra,100007ce <vPortYield>
    10001072:	626000ef          	jal	ra,10001698 <vTaskExitCritical>
    10001076:	fe843783          	ld	a5,-24(s0)
    1000107a:	853e                	mv	a0,a5
    1000107c:	60e2                	ld	ra,24(sp)
    1000107e:	6442                	ld	s0,16(sp)
    10001080:	6105                	addi	sp,sp,32
    10001082:	8082                	ret

0000000010001084 <prvTaskExitError>:
    10001084:	1141                	addi	sp,sp,-16
    10001086:	e422                	sd	s0,8(sp)
    10001088:	0800                	addi	s0,sp,16
    1000108a:	a001                	j	1000108a <prvTaskExitError+0x6>

000000001000108c <prvInitialiseTCBVariables>:
    1000108c:	715d                	addi	sp,sp,-80
    1000108e:	e486                	sd	ra,72(sp)
    10001090:	e0a2                	sd	s0,64(sp)
    10001092:	0880                	addi	s0,sp,80
    10001094:	fca43c23          	sd	a0,-40(s0)
    10001098:	fcb43823          	sd	a1,-48(s0)
    1000109c:	fcc43423          	sd	a2,-56(s0)
    100010a0:	fcd43023          	sd	a3,-64(s0)
    100010a4:	87ba                	mv	a5,a4
    100010a6:	faf41f23          	sh	a5,-66(s0)
    100010aa:	fe043423          	sd	zero,-24(s0)
    100010ae:	a825                	j	100010e6 <prvInitialiseTCBVariables+0x5a>
    100010b0:	fd043703          	ld	a4,-48(s0)
    100010b4:	fe843783          	ld	a5,-24(s0)
    100010b8:	97ba                	add	a5,a5,a4
    100010ba:	0007c703          	lbu	a4,0(a5)
    100010be:	fd843683          	ld	a3,-40(s0)
    100010c2:	fe843783          	ld	a5,-24(s0)
    100010c6:	97b6                	add	a5,a5,a3
    100010c8:	06e78423          	sb	a4,104(a5)
    100010cc:	fd043703          	ld	a4,-48(s0)
    100010d0:	fe843783          	ld	a5,-24(s0)
    100010d4:	97ba                	add	a5,a5,a4
    100010d6:	0007c783          	lbu	a5,0(a5)
    100010da:	cf81                	beqz	a5,100010f2 <prvInitialiseTCBVariables+0x66>
    100010dc:	fe843783          	ld	a5,-24(s0)
    100010e0:	0785                	addi	a5,a5,1
    100010e2:	fef43423          	sd	a5,-24(s0)
    100010e6:	fe843703          	ld	a4,-24(s0)
    100010ea:	47bd                	li	a5,15
    100010ec:	fce7f2e3          	bgeu	a5,a4,100010b0 <prvInitialiseTCBVariables+0x24>
    100010f0:	a011                	j	100010f4 <prvInitialiseTCBVariables+0x68>
    100010f2:	0001                	nop
    100010f4:	fd843783          	ld	a5,-40(s0)
    100010f8:	06078ba3          	sb	zero,119(a5)
    100010fc:	fc843703          	ld	a4,-56(s0)
    10001100:	4791                	li	a5,4
    10001102:	00e7f563          	bgeu	a5,a4,1000110c <prvInitialiseTCBVariables+0x80>
    10001106:	4791                	li	a5,4
    10001108:	fcf43423          	sd	a5,-56(s0)
    1000110c:	fd843783          	ld	a5,-40(s0)
    10001110:	fc843703          	ld	a4,-56(s0)
    10001114:	efb8                	sd	a4,88(a5)
    10001116:	fd843783          	ld	a5,-40(s0)
    1000111a:	07a1                	addi	a5,a5,8
    1000111c:	853e                	mv	a0,a5
    1000111e:	c6aff0ef          	jal	ra,10000588 <vListInitialiseItem>
    10001122:	fd843783          	ld	a5,-40(s0)
    10001126:	03078793          	addi	a5,a5,48
    1000112a:	853e                	mv	a0,a5
    1000112c:	c5cff0ef          	jal	ra,10000588 <vListInitialiseItem>
    10001130:	fd843783          	ld	a5,-40(s0)
    10001134:	fd843703          	ld	a4,-40(s0)
    10001138:	f398                	sd	a4,32(a5)
    1000113a:	fc843783          	ld	a5,-56(s0)
    1000113e:	2781                	sext.w	a5,a5
    10001140:	4715                	li	a4,5
    10001142:	40f707bb          	subw	a5,a4,a5
    10001146:	0007871b          	sext.w	a4,a5
    1000114a:	fd843783          	ld	a5,-40(s0)
    1000114e:	db98                	sw	a4,48(a5)
    10001150:	fd843783          	ld	a5,-40(s0)
    10001154:	fd843703          	ld	a4,-40(s0)
    10001158:	e7b8                	sd	a4,72(a5)
    1000115a:	fd843783          	ld	a5,-40(s0)
    1000115e:	0807b023          	sd	zero,128(a5)
    10001162:	0001                	nop
    10001164:	60a6                	ld	ra,72(sp)
    10001166:	6406                	ld	s0,64(sp)
    10001168:	6161                	addi	sp,sp,80
    1000116a:	8082                	ret

000000001000116c <pxPortInitialiseStack>:
    1000116c:	7179                	addi	sp,sp,-48
    1000116e:	f422                	sd	s0,40(sp)
    10001170:	1800                	addi	s0,sp,48
    10001172:	fea43423          	sd	a0,-24(s0)
    10001176:	feb43023          	sd	a1,-32(s0)
    1000117a:	fcc43c23          	sd	a2,-40(s0)
    1000117e:	fe843783          	ld	a5,-24(s0)
    10001182:	17f1                	addi	a5,a5,-4
    10001184:	fef43423          	sd	a5,-24(s0)
    10001188:	fe043783          	ld	a5,-32(s0)
    1000118c:	0007871b          	sext.w	a4,a5
    10001190:	fe843783          	ld	a5,-24(s0)
    10001194:	c398                	sw	a4,0(a5)
    10001196:	fe843783          	ld	a5,-24(s0)
    1000119a:	fa878793          	addi	a5,a5,-88
    1000119e:	fef43423          	sd	a5,-24(s0)
    100011a2:	fd843783          	ld	a5,-40(s0)
    100011a6:	0007871b          	sext.w	a4,a5
    100011aa:	fe843783          	ld	a5,-24(s0)
    100011ae:	c398                	sw	a4,0(a5)
    100011b0:	fe843783          	ld	a5,-24(s0)
    100011b4:	17a1                	addi	a5,a5,-24
    100011b6:	fef43423          	sd	a5,-24(s0)
    100011ba:	878e                	mv	a5,gp
    100011bc:	0007871b          	sext.w	a4,a5
    100011c0:	fe843783          	ld	a5,-24(s0)
    100011c4:	c398                	sw	a4,0(a5)
    100011c6:	fe843783          	ld	a5,-24(s0)
    100011ca:	17d1                	addi	a5,a5,-12
    100011cc:	fef43423          	sd	a5,-24(s0)
    100011d0:	100017b7          	lui	a5,0x10001
    100011d4:	08478793          	addi	a5,a5,132 # 10001084 <prvTaskExitError>
    100011d8:	0007871b          	sext.w	a4,a5
    100011dc:	fe843783          	ld	a5,-24(s0)
    100011e0:	c398                	sw	a4,0(a5)
    100011e2:	fe843783          	ld	a5,-24(s0)
    100011e6:	853e                	mv	a0,a5
    100011e8:	7422                	ld	s0,40(sp)
    100011ea:	6145                	addi	sp,sp,48
    100011ec:	8082                	ret

00000000100011ee <prvAllocateTCBAndStack>:
    100011ee:	7179                	addi	sp,sp,-48
    100011f0:	f406                	sd	ra,40(sp)
    100011f2:	f022                	sd	s0,32(sp)
    100011f4:	1800                	addi	s0,sp,48
    100011f6:	87aa                	mv	a5,a0
    100011f8:	fcb43823          	sd	a1,-48(s0)
    100011fc:	fcf41f23          	sh	a5,-34(s0)
    10001200:	fd043783          	ld	a5,-48(s0)
    10001204:	eb89                	bnez	a5,10001216 <prvAllocateTCBAndStack+0x28>
    10001206:	fde41783          	lh	a5,-34(s0)
    1000120a:	078a                	slli	a5,a5,0x2
    1000120c:	853e                	mv	a0,a5
    1000120e:	86cff0ef          	jal	ra,1000027a <pvPortMalloc>
    10001212:	87aa                	mv	a5,a0
    10001214:	a019                	j	1000121a <prvAllocateTCBAndStack+0x2c>
    10001216:	fd043783          	ld	a5,-48(s0)
    1000121a:	fef43023          	sd	a5,-32(s0)
    1000121e:	fe043783          	ld	a5,-32(s0)
    10001222:	c795                	beqz	a5,1000124e <prvAllocateTCBAndStack+0x60>
    10001224:	08800513          	li	a0,136
    10001228:	852ff0ef          	jal	ra,1000027a <pvPortMalloc>
    1000122c:	87aa                	mv	a5,a0
    1000122e:	fef43423          	sd	a5,-24(s0)
    10001232:	fe843783          	ld	a5,-24(s0)
    10001236:	c799                	beqz	a5,10001244 <prvAllocateTCBAndStack+0x56>
    10001238:	fe843783          	ld	a5,-24(s0)
    1000123c:	fe043703          	ld	a4,-32(s0)
    10001240:	f3b8                	sd	a4,96(a5)
    10001242:	a801                	j	10001252 <prvAllocateTCBAndStack+0x64>
    10001244:	fe043503          	ld	a0,-32(s0)
    10001248:	9e8ff0ef          	jal	ra,10000430 <vPortFree>
    1000124c:	a019                	j	10001252 <prvAllocateTCBAndStack+0x64>
    1000124e:	fe043423          	sd	zero,-24(s0)
    10001252:	fe843783          	ld	a5,-24(s0)
    10001256:	853e                	mv	a0,a5
    10001258:	70a2                	ld	ra,40(sp)
    1000125a:	7402                	ld	s0,32(sp)
    1000125c:	6145                	addi	sp,sp,48
    1000125e:	8082                	ret

0000000010001260 <xTaskGenericCreate>:
    10001260:	7159                	addi	sp,sp,-112
    10001262:	f486                	sd	ra,104(sp)
    10001264:	f0a2                	sd	s0,96(sp)
    10001266:	1880                	addi	s0,sp,112
    10001268:	fca43423          	sd	a0,-56(s0)
    1000126c:	fcb43023          	sd	a1,-64(s0)
    10001270:	fad43823          	sd	a3,-80(s0)
    10001274:	fae43423          	sd	a4,-88(s0)
    10001278:	faf43023          	sd	a5,-96(s0)
    1000127c:	f9043c23          	sd	a6,-104(s0)
    10001280:	f9143823          	sd	a7,-112(s0)
    10001284:	87b2                	mv	a5,a2
    10001286:	faf41f23          	sh	a5,-66(s0)
    1000128a:	fbe41783          	lh	a5,-66(s0)
    1000128e:	f9843583          	ld	a1,-104(s0)
    10001292:	853e                	mv	a0,a5
    10001294:	f5bff0ef          	jal	ra,100011ee <prvAllocateTCBAndStack>
    10001298:	fea43023          	sd	a0,-32(s0)
    1000129c:	fe043783          	ld	a5,-32(s0)
    100012a0:	10078b63          	beqz	a5,100013b6 <xTaskGenericCreate+0x156>
    100012a4:	fe043783          	ld	a5,-32(s0)
    100012a8:	73bc                	ld	a5,96(a5)
    100012aa:	fcf43c23          	sd	a5,-40(s0)
    100012ae:	fe043783          	ld	a5,-32(s0)
    100012b2:	73b8                	ld	a4,96(a5)
    100012b4:	fbe41783          	lh	a5,-66(s0)
    100012b8:	078a                	slli	a5,a5,0x2
    100012ba:	17f1                	addi	a5,a5,-4
    100012bc:	973e                	add	a4,a4,a5
    100012be:	fe043783          	ld	a5,-32(s0)
    100012c2:	ffb8                	sd	a4,120(a5)
    100012c4:	fbe41783          	lh	a5,-66(s0)
    100012c8:	873e                	mv	a4,a5
    100012ca:	f9043683          	ld	a3,-112(s0)
    100012ce:	fa843603          	ld	a2,-88(s0)
    100012d2:	fc043583          	ld	a1,-64(s0)
    100012d6:	fe043503          	ld	a0,-32(s0)
    100012da:	db3ff0ef          	jal	ra,1000108c <prvInitialiseTCBVariables>
    100012de:	fb043603          	ld	a2,-80(s0)
    100012e2:	fc843583          	ld	a1,-56(s0)
    100012e6:	fd843503          	ld	a0,-40(s0)
    100012ea:	e83ff0ef          	jal	ra,1000116c <pxPortInitialiseStack>
    100012ee:	872a                	mv	a4,a0
    100012f0:	fe043783          	ld	a5,-32(s0)
    100012f4:	e398                	sd	a4,0(a5)
    100012f6:	fa043783          	ld	a5,-96(s0)
    100012fa:	c791                	beqz	a5,10001306 <xTaskGenericCreate+0xa6>
    100012fc:	fa043783          	ld	a5,-96(s0)
    10001300:	fe043703          	ld	a4,-32(s0)
    10001304:	e398                	sd	a4,0(a5)
    10001306:	360000ef          	jal	ra,10001666 <vTaskEnterCritical>
    1000130a:	1001c7b7          	lui	a5,0x1001c
    1000130e:	1b87b783          	ld	a5,440(a5) # 1001c1b8 <uxCurrentNumberOfTasks>
    10001312:	00178713          	addi	a4,a5,1
    10001316:	1001c7b7          	lui	a5,0x1001c
    1000131a:	1ae7bc23          	sd	a4,440(a5) # 1001c1b8 <uxCurrentNumberOfTasks>
    1000131e:	1001c7b7          	lui	a5,0x1001c
    10001322:	3187b783          	ld	a5,792(a5) # 1001c318 <pxCurrentTCB>
    10001326:	e38d                	bnez	a5,10001348 <xTaskGenericCreate+0xe8>
    10001328:	1001c7b7          	lui	a5,0x1001c
    1000132c:	fe043703          	ld	a4,-32(s0)
    10001330:	30e7bc23          	sd	a4,792(a5) # 1001c318 <pxCurrentTCB>
    10001334:	1001c7b7          	lui	a5,0x1001c
    10001338:	1b87b703          	ld	a4,440(a5) # 1001c1b8 <uxCurrentNumberOfTasks>
    1000133c:	4785                	li	a5,1
    1000133e:	02f71963          	bne	a4,a5,10001370 <xTaskGenericCreate+0x110>
    10001342:	752000ef          	jal	ra,10001a94 <prvInitialiseTaskLists>
    10001346:	a02d                	j	10001370 <xTaskGenericCreate+0x110>
    10001348:	1001c7b7          	lui	a5,0x1001c
    1000134c:	0587b783          	ld	a5,88(a5) # 1001c058 <xSchedulerRunning>
    10001350:	e385                	bnez	a5,10001370 <xTaskGenericCreate+0x110>
    10001352:	1001c7b7          	lui	a5,0x1001c
    10001356:	3187b783          	ld	a5,792(a5) # 1001c318 <pxCurrentTCB>
    1000135a:	6fbc                	ld	a5,88(a5)
    1000135c:	fa843703          	ld	a4,-88(s0)
    10001360:	00f76863          	bltu	a4,a5,10001370 <xTaskGenericCreate+0x110>
    10001364:	1001c7b7          	lui	a5,0x1001c
    10001368:	fe043703          	ld	a4,-32(s0)
    1000136c:	30e7bc23          	sd	a4,792(a5) # 1001c318 <pxCurrentTCB>
    10001370:	1001c7b7          	lui	a5,0x1001c
    10001374:	2087b783          	ld	a5,520(a5) # 1001c208 <uxTaskNumber>
    10001378:	00178713          	addi	a4,a5,1
    1000137c:	1001c7b7          	lui	a5,0x1001c
    10001380:	20e7b423          	sd	a4,520(a5) # 1001c208 <uxTaskNumber>
    10001384:	fe043783          	ld	a5,-32(s0)
    10001388:	6fb8                	ld	a4,88(a5)
    1000138a:	87ba                	mv	a5,a4
    1000138c:	078a                	slli	a5,a5,0x2
    1000138e:	97ba                	add	a5,a5,a4
    10001390:	078e                	slli	a5,a5,0x3
    10001392:	1001c737          	lui	a4,0x1001c
    10001396:	06870713          	addi	a4,a4,104 # 1001c068 <pxReadyTasksLists>
    1000139a:	973e                	add	a4,a4,a5
    1000139c:	fe043783          	ld	a5,-32(s0)
    100013a0:	07a1                	addi	a5,a5,8
    100013a2:	85be                	mv	a1,a5
    100013a4:	853a                	mv	a0,a4
    100013a6:	aa4ff0ef          	jal	ra,1000064a <vListInsertEnd>
    100013aa:	4785                	li	a5,1
    100013ac:	fef43423          	sd	a5,-24(s0)
    100013b0:	2e8000ef          	jal	ra,10001698 <vTaskExitCritical>
    100013b4:	a021                	j	100013bc <xTaskGenericCreate+0x15c>
    100013b6:	57fd                	li	a5,-1
    100013b8:	fef43423          	sd	a5,-24(s0)
    100013bc:	fe843703          	ld	a4,-24(s0)
    100013c0:	4785                	li	a5,1
    100013c2:	02f71263          	bne	a4,a5,100013e6 <xTaskGenericCreate+0x186>
    100013c6:	1001c7b7          	lui	a5,0x1001c
    100013ca:	0587b783          	ld	a5,88(a5) # 1001c058 <xSchedulerRunning>
    100013ce:	cf81                	beqz	a5,100013e6 <xTaskGenericCreate+0x186>
    100013d0:	1001c7b7          	lui	a5,0x1001c
    100013d4:	3187b783          	ld	a5,792(a5) # 1001c318 <pxCurrentTCB>
    100013d8:	6fbc                	ld	a5,88(a5)
    100013da:	fa843703          	ld	a4,-88(s0)
    100013de:	00e7f463          	bgeu	a5,a4,100013e6 <xTaskGenericCreate+0x186>
    100013e2:	becff0ef          	jal	ra,100007ce <vPortYield>
    100013e6:	fe843783          	ld	a5,-24(s0)
    100013ea:	853e                	mv	a0,a5
    100013ec:	70a6                	ld	ra,104(sp)
    100013ee:	7406                	ld	s0,96(sp)
    100013f0:	6165                	addi	sp,sp,112
    100013f2:	8082                	ret

00000000100013f4 <vTaskSwitchContext>:
    100013f4:	7179                	addi	sp,sp,-48
    100013f6:	f406                	sd	ra,40(sp)
    100013f8:	f022                	sd	s0,32(sp)
    100013fa:	1800                	addi	s0,sp,48
    100013fc:	1001c7b7          	lui	a5,0x1001c
    10001400:	0507b783          	ld	a5,80(a5) # 1001c050 <uxSchedulerSuspended>
    10001404:	c799                	beqz	a5,10001412 <vTaskSwitchContext+0x1e>
    10001406:	1001c7b7          	lui	a5,0x1001c
    1000140a:	4705                	li	a4,1
    1000140c:	1ee7bc23          	sd	a4,504(a5) # 1001c1f8 <xYieldPending>
    10001410:	aa11                	j	10001524 <vTaskSwitchContext+0x130>
    10001412:	1001c7b7          	lui	a5,0x1001c
    10001416:	1e07bc23          	sd	zero,504(a5) # 1001c1f8 <xYieldPending>
    1000141a:	1001c7b7          	lui	a5,0x1001c
    1000141e:	3187b783          	ld	a5,792(a5) # 1001c318 <pxCurrentTCB>
    10001422:	73bc                	ld	a5,96(a5)
    10001424:	fef43423          	sd	a5,-24(s0)
    10001428:	a5a5a7b7          	lui	a5,0xa5a5a
    1000142c:	5a57879b          	addiw	a5,a5,1445
    10001430:	fef42223          	sw	a5,-28(s0)
    10001434:	fe843783          	ld	a5,-24(s0)
    10001438:	4398                	lw	a4,0(a5)
    1000143a:	fe442783          	lw	a5,-28(s0)
    1000143e:	2781                	sext.w	a5,a5
    10001440:	02e79d63          	bne	a5,a4,1000147a <vTaskSwitchContext+0x86>
    10001444:	fe843783          	ld	a5,-24(s0)
    10001448:	0791                	addi	a5,a5,4
    1000144a:	4398                	lw	a4,0(a5)
    1000144c:	fe442783          	lw	a5,-28(s0)
    10001450:	2781                	sext.w	a5,a5
    10001452:	02e79463          	bne	a5,a4,1000147a <vTaskSwitchContext+0x86>
    10001456:	fe843783          	ld	a5,-24(s0)
    1000145a:	07a1                	addi	a5,a5,8
    1000145c:	4398                	lw	a4,0(a5)
    1000145e:	fe442783          	lw	a5,-28(s0)
    10001462:	2781                	sext.w	a5,a5
    10001464:	00e79b63          	bne	a5,a4,1000147a <vTaskSwitchContext+0x86>
    10001468:	fe843783          	ld	a5,-24(s0)
    1000146c:	07b1                	addi	a5,a5,12
    1000146e:	4398                	lw	a4,0(a5)
    10001470:	fe442783          	lw	a5,-28(s0)
    10001474:	2781                	sext.w	a5,a5
    10001476:	02e78b63          	beq	a5,a4,100014ac <vTaskSwitchContext+0xb8>
    1000147a:	1001c7b7          	lui	a5,0x1001c
    1000147e:	3187b703          	ld	a4,792(a5) # 1001c318 <pxCurrentTCB>
    10001482:	1001c7b7          	lui	a5,0x1001c
    10001486:	3187b783          	ld	a5,792(a5) # 1001c318 <pxCurrentTCB>
    1000148a:	06878793          	addi	a5,a5,104
    1000148e:	85be                	mv	a1,a5
    10001490:	853a                	mv	a0,a4
    10001492:	a83ff0ef          	jal	ra,10000f14 <vApplicationStackOverflowHook>
    10001496:	a819                	j	100014ac <vTaskSwitchContext+0xb8>
    10001498:	1001c7b7          	lui	a5,0x1001c
    1000149c:	0607b783          	ld	a5,96(a5) # 1001c060 <uxTopReadyPriority>
    100014a0:	fff78713          	addi	a4,a5,-1
    100014a4:	1001c7b7          	lui	a5,0x1001c
    100014a8:	06e7b023          	sd	a4,96(a5) # 1001c060 <uxTopReadyPriority>
    100014ac:	1001c7b7          	lui	a5,0x1001c
    100014b0:	0607b703          	ld	a4,96(a5) # 1001c060 <uxTopReadyPriority>
    100014b4:	1001c7b7          	lui	a5,0x1001c
    100014b8:	06878693          	addi	a3,a5,104 # 1001c068 <pxReadyTasksLists>
    100014bc:	87ba                	mv	a5,a4
    100014be:	078a                	slli	a5,a5,0x2
    100014c0:	97ba                	add	a5,a5,a4
    100014c2:	078e                	slli	a5,a5,0x3
    100014c4:	97b6                	add	a5,a5,a3
    100014c6:	639c                	ld	a5,0(a5)
    100014c8:	dbe1                	beqz	a5,10001498 <vTaskSwitchContext+0xa4>
    100014ca:	1001c7b7          	lui	a5,0x1001c
    100014ce:	0607b703          	ld	a4,96(a5) # 1001c060 <uxTopReadyPriority>
    100014d2:	87ba                	mv	a5,a4
    100014d4:	078a                	slli	a5,a5,0x2
    100014d6:	97ba                	add	a5,a5,a4
    100014d8:	078e                	slli	a5,a5,0x3
    100014da:	1001c737          	lui	a4,0x1001c
    100014de:	06870713          	addi	a4,a4,104 # 1001c068 <pxReadyTasksLists>
    100014e2:	97ba                	add	a5,a5,a4
    100014e4:	fcf43c23          	sd	a5,-40(s0)
    100014e8:	fd843783          	ld	a5,-40(s0)
    100014ec:	679c                	ld	a5,8(a5)
    100014ee:	6798                	ld	a4,8(a5)
    100014f0:	fd843783          	ld	a5,-40(s0)
    100014f4:	e798                	sd	a4,8(a5)
    100014f6:	fd843783          	ld	a5,-40(s0)
    100014fa:	6798                	ld	a4,8(a5)
    100014fc:	fd843783          	ld	a5,-40(s0)
    10001500:	07c1                	addi	a5,a5,16
    10001502:	00f71963          	bne	a4,a5,10001514 <vTaskSwitchContext+0x120>
    10001506:	fd843783          	ld	a5,-40(s0)
    1000150a:	679c                	ld	a5,8(a5)
    1000150c:	6798                	ld	a4,8(a5)
    1000150e:	fd843783          	ld	a5,-40(s0)
    10001512:	e798                	sd	a4,8(a5)
    10001514:	fd843783          	ld	a5,-40(s0)
    10001518:	679c                	ld	a5,8(a5)
    1000151a:	6f98                	ld	a4,24(a5)
    1000151c:	1001c7b7          	lui	a5,0x1001c
    10001520:	30e7bc23          	sd	a4,792(a5) # 1001c318 <pxCurrentTCB>
    10001524:	0001                	nop
    10001526:	70a2                	ld	ra,40(sp)
    10001528:	7402                	ld	s0,32(sp)
    1000152a:	6145                	addi	sp,sp,48
    1000152c:	8082                	ret

000000001000152e <xTaskRemoveFromEventList>:
    1000152e:	7179                	addi	sp,sp,-48
    10001530:	f406                	sd	ra,40(sp)
    10001532:	f022                	sd	s0,32(sp)
    10001534:	1800                	addi	s0,sp,48
    10001536:	fca43c23          	sd	a0,-40(s0)
    1000153a:	fd843783          	ld	a5,-40(s0)
    1000153e:	6f9c                	ld	a5,24(a5)
    10001540:	6f9c                	ld	a5,24(a5)
    10001542:	fef43023          	sd	a5,-32(s0)
    10001546:	fe043783          	ld	a5,-32(s0)
    1000154a:	03078793          	addi	a5,a5,48
    1000154e:	853e                	mv	a0,a5
    10001550:	960ff0ef          	jal	ra,100006b0 <uxListRemove>
    10001554:	1001c7b7          	lui	a5,0x1001c
    10001558:	0507b783          	ld	a5,80(a5) # 1001c050 <uxSchedulerSuspended>
    1000155c:	eb9d                	bnez	a5,10001592 <xTaskRemoveFromEventList+0x64>
    1000155e:	fe043783          	ld	a5,-32(s0)
    10001562:	07a1                	addi	a5,a5,8
    10001564:	853e                	mv	a0,a5
    10001566:	94aff0ef          	jal	ra,100006b0 <uxListRemove>
    1000156a:	fe043783          	ld	a5,-32(s0)
    1000156e:	6fb8                	ld	a4,88(a5)
    10001570:	87ba                	mv	a5,a4
    10001572:	078a                	slli	a5,a5,0x2
    10001574:	97ba                	add	a5,a5,a4
    10001576:	078e                	slli	a5,a5,0x3
    10001578:	1001c737          	lui	a4,0x1001c
    1000157c:	06870713          	addi	a4,a4,104 # 1001c068 <pxReadyTasksLists>
    10001580:	973e                	add	a4,a4,a5
    10001582:	fe043783          	ld	a5,-32(s0)
    10001586:	07a1                	addi	a5,a5,8
    10001588:	85be                	mv	a1,a5
    1000158a:	853a                	mv	a0,a4
    1000158c:	8beff0ef          	jal	ra,1000064a <vListInsertEnd>
    10001590:	a821                	j	100015a8 <xTaskRemoveFromEventList+0x7a>
    10001592:	fe043783          	ld	a5,-32(s0)
    10001596:	03078793          	addi	a5,a5,48
    1000159a:	85be                	mv	a1,a5
    1000159c:	1001c7b7          	lui	a5,0x1001c
    100015a0:	19078513          	addi	a0,a5,400 # 1001c190 <xPendingReadyList>
    100015a4:	8a6ff0ef          	jal	ra,1000064a <vListInsertEnd>
    100015a8:	fe043783          	ld	a5,-32(s0)
    100015ac:	6fb8                	ld	a4,88(a5)
    100015ae:	1001c7b7          	lui	a5,0x1001c
    100015b2:	3187b783          	ld	a5,792(a5) # 1001c318 <pxCurrentTCB>
    100015b6:	6fbc                	ld	a5,88(a5)
    100015b8:	00e7fb63          	bgeu	a5,a4,100015ce <xTaskRemoveFromEventList+0xa0>
    100015bc:	4785                	li	a5,1
    100015be:	fef43423          	sd	a5,-24(s0)
    100015c2:	1001c7b7          	lui	a5,0x1001c
    100015c6:	4705                	li	a4,1
    100015c8:	1ee7bc23          	sd	a4,504(a5) # 1001c1f8 <xYieldPending>
    100015cc:	a019                	j	100015d2 <xTaskRemoveFromEventList+0xa4>
    100015ce:	fe043423          	sd	zero,-24(s0)
    100015d2:	fe843783          	ld	a5,-24(s0)
    100015d6:	853e                	mv	a0,a5
    100015d8:	70a2                	ld	ra,40(sp)
    100015da:	7402                	ld	s0,32(sp)
    100015dc:	6145                	addi	sp,sp,48
    100015de:	8082                	ret

00000000100015e0 <xTaskGetSchedulerState>:
    100015e0:	1101                	addi	sp,sp,-32
    100015e2:	ec22                	sd	s0,24(sp)
    100015e4:	1000                	addi	s0,sp,32
    100015e6:	1001c7b7          	lui	a5,0x1001c
    100015ea:	0587b783          	ld	a5,88(a5) # 1001c058 <xSchedulerRunning>
    100015ee:	e789                	bnez	a5,100015f8 <xTaskGetSchedulerState+0x18>
    100015f0:	4785                	li	a5,1
    100015f2:	fef43423          	sd	a5,-24(s0)
    100015f6:	a821                	j	1000160e <xTaskGetSchedulerState+0x2e>
    100015f8:	1001c7b7          	lui	a5,0x1001c
    100015fc:	0507b783          	ld	a5,80(a5) # 1001c050 <uxSchedulerSuspended>
    10001600:	e789                	bnez	a5,1000160a <xTaskGetSchedulerState+0x2a>
    10001602:	4789                	li	a5,2
    10001604:	fef43423          	sd	a5,-24(s0)
    10001608:	a019                	j	1000160e <xTaskGetSchedulerState+0x2e>
    1000160a:	fe043423          	sd	zero,-24(s0)
    1000160e:	fe843783          	ld	a5,-24(s0)
    10001612:	853e                	mv	a0,a5
    10001614:	6462                	ld	s0,24(sp)
    10001616:	6105                	addi	sp,sp,32
    10001618:	8082                	ret

000000001000161a <vTaskStartScheduler>:
    1000161a:	1101                	addi	sp,sp,-32
    1000161c:	ec06                	sd	ra,24(sp)
    1000161e:	e822                	sd	s0,16(sp)
    10001620:	1000                	addi	s0,sp,32
    10001622:	fe843703          	ld	a4,-24(s0)
    10001626:	4785                	li	a5,1
    10001628:	00f71763          	bne	a4,a5,10001636 <vTaskStartScheduler+0x1c>
    1000162c:	7bc000ef          	jal	ra,10001de8 <xTimerCreateTimerTask>
    10001630:	87aa                	mv	a5,a0
    10001632:	fef43423          	sd	a5,-24(s0)
    10001636:	a42ff0ef          	jal	ra,10000878 <xPortStartScheduler>
    1000163a:	0001                	nop
    1000163c:	60e2                	ld	ra,24(sp)
    1000163e:	6442                	ld	s0,16(sp)
    10001640:	6105                	addi	sp,sp,32
    10001642:	8082                	ret

0000000010001644 <vTaskSuspendAll>:
    10001644:	1141                	addi	sp,sp,-16
    10001646:	e422                	sd	s0,8(sp)
    10001648:	0800                	addi	s0,sp,16
    1000164a:	1001c7b7          	lui	a5,0x1001c
    1000164e:	0507b783          	ld	a5,80(a5) # 1001c050 <uxSchedulerSuspended>
    10001652:	00178713          	addi	a4,a5,1
    10001656:	1001c7b7          	lui	a5,0x1001c
    1000165a:	04e7b823          	sd	a4,80(a5) # 1001c050 <uxSchedulerSuspended>
    1000165e:	0001                	nop
    10001660:	6422                	ld	s0,8(sp)
    10001662:	0141                	addi	sp,sp,16
    10001664:	8082                	ret

0000000010001666 <vTaskEnterCritical>:
    10001666:	1141                	addi	sp,sp,-16
    10001668:	e422                	sd	s0,8(sp)
    1000166a:	0800                	addi	s0,sp,16
    1000166c:	3000f073          	csrci	mstatus,1
    10001670:	1001c7b7          	lui	a5,0x1001c
    10001674:	0587b783          	ld	a5,88(a5) # 1001c058 <xSchedulerRunning>
    10001678:	cf81                	beqz	a5,10001690 <vTaskEnterCritical+0x2a>
    1000167a:	1001c7b7          	lui	a5,0x1001c
    1000167e:	3187b783          	ld	a5,792(a5) # 1001c318 <pxCurrentTCB>
    10001682:	63d8                	ld	a4,128(a5)
    10001684:	0705                	addi	a4,a4,1
    10001686:	e3d8                	sd	a4,128(a5)
    10001688:	1001c7b7          	lui	a5,0x1001c
    1000168c:	3187b783          	ld	a5,792(a5) # 1001c318 <pxCurrentTCB>
    10001690:	0001                	nop
    10001692:	6422                	ld	s0,8(sp)
    10001694:	0141                	addi	sp,sp,16
    10001696:	8082                	ret

0000000010001698 <vTaskExitCritical>:
    10001698:	1141                	addi	sp,sp,-16
    1000169a:	e422                	sd	s0,8(sp)
    1000169c:	0800                	addi	s0,sp,16
    1000169e:	1001c7b7          	lui	a5,0x1001c
    100016a2:	0587b783          	ld	a5,88(a5) # 1001c058 <xSchedulerRunning>
    100016a6:	c795                	beqz	a5,100016d2 <vTaskExitCritical+0x3a>
    100016a8:	1001c7b7          	lui	a5,0x1001c
    100016ac:	3187b783          	ld	a5,792(a5) # 1001c318 <pxCurrentTCB>
    100016b0:	63dc                	ld	a5,128(a5)
    100016b2:	c385                	beqz	a5,100016d2 <vTaskExitCritical+0x3a>
    100016b4:	1001c7b7          	lui	a5,0x1001c
    100016b8:	3187b783          	ld	a5,792(a5) # 1001c318 <pxCurrentTCB>
    100016bc:	63d8                	ld	a4,128(a5)
    100016be:	177d                	addi	a4,a4,-1
    100016c0:	e3d8                	sd	a4,128(a5)
    100016c2:	1001c7b7          	lui	a5,0x1001c
    100016c6:	3187b783          	ld	a5,792(a5) # 1001c318 <pxCurrentTCB>
    100016ca:	63dc                	ld	a5,128(a5)
    100016cc:	e399                	bnez	a5,100016d2 <vTaskExitCritical+0x3a>
    100016ce:	3000e073          	csrsi	mstatus,1
    100016d2:	0001                	nop
    100016d4:	6422                	ld	s0,8(sp)
    100016d6:	0141                	addi	sp,sp,16
    100016d8:	8082                	ret

00000000100016da <vTaskSetTimeOutState>:
    100016da:	1101                	addi	sp,sp,-32
    100016dc:	ec22                	sd	s0,24(sp)
    100016de:	1000                	addi	s0,sp,32
    100016e0:	fea43423          	sd	a0,-24(s0)
    100016e4:	1001c7b7          	lui	a5,0x1001c
    100016e8:	2007b703          	ld	a4,512(a5) # 1001c200 <xNumOfOverflows>
    100016ec:	fe843783          	ld	a5,-24(s0)
    100016f0:	e398                	sd	a4,0(a5)
    100016f2:	1001c7b7          	lui	a5,0x1001c
    100016f6:	1c07a783          	lw	a5,448(a5) # 1001c1c0 <xTickCount>
    100016fa:	0007871b          	sext.w	a4,a5
    100016fe:	fe843783          	ld	a5,-24(s0)
    10001702:	c798                	sw	a4,8(a5)
    10001704:	0001                	nop
    10001706:	6462                	ld	s0,24(sp)
    10001708:	6105                	addi	sp,sp,32
    1000170a:	8082                	ret

000000001000170c <xTaskCheckForTimeOut>:
    1000170c:	7179                	addi	sp,sp,-48
    1000170e:	f406                	sd	ra,40(sp)
    10001710:	f022                	sd	s0,32(sp)
    10001712:	1800                	addi	s0,sp,48
    10001714:	fca43c23          	sd	a0,-40(s0)
    10001718:	fcb43823          	sd	a1,-48(s0)
    1000171c:	1001c7b7          	lui	a5,0x1001c
    10001720:	1c07a783          	lw	a5,448(a5) # 1001c1c0 <xTickCount>
    10001724:	fef42223          	sw	a5,-28(s0)
    10001728:	fd043783          	ld	a5,-48(s0)
    1000172c:	439c                	lw	a5,0(a5)
    1000172e:	873e                	mv	a4,a5
    10001730:	57fd                	li	a5,-1
    10001732:	00f71463          	bne	a4,a5,1000173a <xTaskCheckForTimeOut+0x2e>
    10001736:	fe043423          	sd	zero,-24(s0)
    1000173a:	fd843783          	ld	a5,-40(s0)
    1000173e:	6398                	ld	a4,0(a5)
    10001740:	1001c7b7          	lui	a5,0x1001c
    10001744:	2007b783          	ld	a5,512(a5) # 1001c200 <xNumOfOverflows>
    10001748:	00f70e63          	beq	a4,a5,10001764 <xTaskCheckForTimeOut+0x58>
    1000174c:	fd843783          	ld	a5,-40(s0)
    10001750:	4798                	lw	a4,8(a5)
    10001752:	fe442783          	lw	a5,-28(s0)
    10001756:	2781                	sext.w	a5,a5
    10001758:	00e7e663          	bltu	a5,a4,10001764 <xTaskCheckForTimeOut+0x58>
    1000175c:	4785                	li	a5,1
    1000175e:	fef43423          	sd	a5,-24(s0)
    10001762:	a891                	j	100017b6 <xTaskCheckForTimeOut+0xaa>
    10001764:	fd843783          	ld	a5,-40(s0)
    10001768:	479c                	lw	a5,8(a5)
    1000176a:	fe442703          	lw	a4,-28(s0)
    1000176e:	40f707bb          	subw	a5,a4,a5
    10001772:	0007871b          	sext.w	a4,a5
    10001776:	fd043783          	ld	a5,-48(s0)
    1000177a:	439c                	lw	a5,0(a5)
    1000177c:	02f77a63          	bgeu	a4,a5,100017b0 <xTaskCheckForTimeOut+0xa4>
    10001780:	fd043783          	ld	a5,-48(s0)
    10001784:	4398                	lw	a4,0(a5)
    10001786:	fd843783          	ld	a5,-40(s0)
    1000178a:	4794                	lw	a3,8(a5)
    1000178c:	fe442783          	lw	a5,-28(s0)
    10001790:	40f687bb          	subw	a5,a3,a5
    10001794:	2781                	sext.w	a5,a5
    10001796:	9fb9                	addw	a5,a5,a4
    10001798:	0007871b          	sext.w	a4,a5
    1000179c:	fd043783          	ld	a5,-48(s0)
    100017a0:	c398                	sw	a4,0(a5)
    100017a2:	fd843503          	ld	a0,-40(s0)
    100017a6:	f35ff0ef          	jal	ra,100016da <vTaskSetTimeOutState>
    100017aa:	fe043423          	sd	zero,-24(s0)
    100017ae:	a021                	j	100017b6 <xTaskCheckForTimeOut+0xaa>
    100017b0:	4785                	li	a5,1
    100017b2:	fef43423          	sd	a5,-24(s0)
    100017b6:	fe843783          	ld	a5,-24(s0)
    100017ba:	853e                	mv	a0,a5
    100017bc:	70a2                	ld	ra,40(sp)
    100017be:	7402                	ld	s0,32(sp)
    100017c0:	6145                	addi	sp,sp,48
    100017c2:	8082                	ret

00000000100017c4 <prvAddCurrentTaskToDelayedList>:
    100017c4:	1101                	addi	sp,sp,-32
    100017c6:	ec06                	sd	ra,24(sp)
    100017c8:	e822                	sd	s0,16(sp)
    100017ca:	1000                	addi	s0,sp,32
    100017cc:	87aa                	mv	a5,a0
    100017ce:	fef42623          	sw	a5,-20(s0)
    100017d2:	1001c7b7          	lui	a5,0x1001c
    100017d6:	3187b783          	ld	a5,792(a5) # 1001c318 <pxCurrentTCB>
    100017da:	fec42703          	lw	a4,-20(s0)
    100017de:	c798                	sw	a4,8(a5)
    100017e0:	1001c7b7          	lui	a5,0x1001c
    100017e4:	1c07a783          	lw	a5,448(a5) # 1001c1c0 <xTickCount>
    100017e8:	0007871b          	sext.w	a4,a5
    100017ec:	fec42783          	lw	a5,-20(s0)
    100017f0:	2781                	sext.w	a5,a5
    100017f2:	02e7f063          	bgeu	a5,a4,10001812 <prvAddCurrentTaskToDelayedList+0x4e>
    100017f6:	1001c7b7          	lui	a5,0x1001c
    100017fa:	1887b703          	ld	a4,392(a5) # 1001c188 <pxOverflowDelayedTaskList>
    100017fe:	1001c7b7          	lui	a5,0x1001c
    10001802:	3187b783          	ld	a5,792(a5) # 1001c318 <pxCurrentTCB>
    10001806:	07a1                	addi	a5,a5,8
    10001808:	85be                	mv	a1,a5
    1000180a:	853a                	mv	a0,a4
    1000180c:	d97fe0ef          	jal	ra,100005a2 <vListInsert>
    10001810:	a83d                	j	1000184e <prvAddCurrentTaskToDelayedList+0x8a>
    10001812:	1001c7b7          	lui	a5,0x1001c
    10001816:	1807b703          	ld	a4,384(a5) # 1001c180 <pxDelayedTaskList>
    1000181a:	1001c7b7          	lui	a5,0x1001c
    1000181e:	3187b783          	ld	a5,792(a5) # 1001c318 <pxCurrentTCB>
    10001822:	07a1                	addi	a5,a5,8
    10001824:	85be                	mv	a1,a5
    10001826:	853a                	mv	a0,a4
    10001828:	d7bfe0ef          	jal	ra,100005a2 <vListInsert>
    1000182c:	1001c7b7          	lui	a5,0x1001c
    10001830:	2107a783          	lw	a5,528(a5) # 1001c210 <xNextTaskUnblockTime>
    10001834:	0007871b          	sext.w	a4,a5
    10001838:	fec42783          	lw	a5,-20(s0)
    1000183c:	2781                	sext.w	a5,a5
    1000183e:	00e7f863          	bgeu	a5,a4,1000184e <prvAddCurrentTaskToDelayedList+0x8a>
    10001842:	1001c7b7          	lui	a5,0x1001c
    10001846:	fec42703          	lw	a4,-20(s0)
    1000184a:	20e7a823          	sw	a4,528(a5) # 1001c210 <xNextTaskUnblockTime>
    1000184e:	0001                	nop
    10001850:	60e2                	ld	ra,24(sp)
    10001852:	6442                	ld	s0,16(sp)
    10001854:	6105                	addi	sp,sp,32
    10001856:	8082                	ret

0000000010001858 <vTaskPlaceOnEventList>:
    10001858:	7179                	addi	sp,sp,-48
    1000185a:	f406                	sd	ra,40(sp)
    1000185c:	f022                	sd	s0,32(sp)
    1000185e:	1800                	addi	s0,sp,48
    10001860:	fca43c23          	sd	a0,-40(s0)
    10001864:	87ae                	mv	a5,a1
    10001866:	fcf42a23          	sw	a5,-44(s0)
    1000186a:	1001c7b7          	lui	a5,0x1001c
    1000186e:	3187b783          	ld	a5,792(a5) # 1001c318 <pxCurrentTCB>
    10001872:	03078793          	addi	a5,a5,48
    10001876:	85be                	mv	a1,a5
    10001878:	fd843503          	ld	a0,-40(s0)
    1000187c:	d27fe0ef          	jal	ra,100005a2 <vListInsert>
    10001880:	1001c7b7          	lui	a5,0x1001c
    10001884:	3187b783          	ld	a5,792(a5) # 1001c318 <pxCurrentTCB>
    10001888:	07a1                	addi	a5,a5,8
    1000188a:	853e                	mv	a0,a5
    1000188c:	e25fe0ef          	jal	ra,100006b0 <uxListRemove>
    10001890:	fd442783          	lw	a5,-44(s0)
    10001894:	0007871b          	sext.w	a4,a5
    10001898:	57fd                	li	a5,-1
    1000189a:	00f71f63          	bne	a4,a5,100018b8 <vTaskPlaceOnEventList+0x60>
    1000189e:	1001c7b7          	lui	a5,0x1001c
    100018a2:	3187b783          	ld	a5,792(a5) # 1001c318 <pxCurrentTCB>
    100018a6:	07a1                	addi	a5,a5,8
    100018a8:	85be                	mv	a1,a5
    100018aa:	1001c7b7          	lui	a5,0x1001c
    100018ae:	1c878513          	addi	a0,a5,456 # 1001c1c8 <xSuspendedTaskList>
    100018b2:	d99fe0ef          	jal	ra,1000064a <vListInsertEnd>
    100018b6:	a005                	j	100018d6 <vTaskPlaceOnEventList+0x7e>
    100018b8:	1001c7b7          	lui	a5,0x1001c
    100018bc:	1c07a783          	lw	a5,448(a5) # 1001c1c0 <xTickCount>
    100018c0:	2781                	sext.w	a5,a5
    100018c2:	fd442703          	lw	a4,-44(s0)
    100018c6:	9fb9                	addw	a5,a5,a4
    100018c8:	fef42623          	sw	a5,-20(s0)
    100018cc:	fec42783          	lw	a5,-20(s0)
    100018d0:	853e                	mv	a0,a5
    100018d2:	ef3ff0ef          	jal	ra,100017c4 <prvAddCurrentTaskToDelayedList>
    100018d6:	0001                	nop
    100018d8:	70a2                	ld	ra,40(sp)
    100018da:	7402                	ld	s0,32(sp)
    100018dc:	6145                	addi	sp,sp,48
    100018de:	8082                	ret

00000000100018e0 <xTaskIncrementTick>:
    100018e0:	7139                	addi	sp,sp,-64
    100018e2:	fc06                	sd	ra,56(sp)
    100018e4:	f822                	sd	s0,48(sp)
    100018e6:	0080                	addi	s0,sp,64
    100018e8:	fe043423          	sd	zero,-24(s0)
    100018ec:	1001c7b7          	lui	a5,0x1001c
    100018f0:	0507b783          	ld	a5,80(a5) # 1001c050 <uxSchedulerSuspended>
    100018f4:	16079763          	bnez	a5,10001a62 <xTaskIncrementTick+0x182>
    100018f8:	1001c7b7          	lui	a5,0x1001c
    100018fc:	1c07a783          	lw	a5,448(a5) # 1001c1c0 <xTickCount>
    10001900:	2781                	sext.w	a5,a5
    10001902:	2785                	addiw	a5,a5,1
    10001904:	0007871b          	sext.w	a4,a5
    10001908:	1001c7b7          	lui	a5,0x1001c
    1000190c:	1ce7a023          	sw	a4,448(a5) # 1001c1c0 <xTickCount>
    10001910:	1001c7b7          	lui	a5,0x1001c
    10001914:	1c07a783          	lw	a5,448(a5) # 1001c1c0 <xTickCount>
    10001918:	fef42223          	sw	a5,-28(s0)
    1000191c:	fe442783          	lw	a5,-28(s0)
    10001920:	2781                	sext.w	a5,a5
    10001922:	e3a9                	bnez	a5,10001964 <xTaskIncrementTick+0x84>
    10001924:	1001c7b7          	lui	a5,0x1001c
    10001928:	1807b783          	ld	a5,384(a5) # 1001c180 <pxDelayedTaskList>
    1000192c:	fcf43c23          	sd	a5,-40(s0)
    10001930:	1001c7b7          	lui	a5,0x1001c
    10001934:	1887b703          	ld	a4,392(a5) # 1001c188 <pxOverflowDelayedTaskList>
    10001938:	1001c7b7          	lui	a5,0x1001c
    1000193c:	18e7b023          	sd	a4,384(a5) # 1001c180 <pxDelayedTaskList>
    10001940:	1001c7b7          	lui	a5,0x1001c
    10001944:	fd843703          	ld	a4,-40(s0)
    10001948:	18e7b423          	sd	a4,392(a5) # 1001c188 <pxOverflowDelayedTaskList>
    1000194c:	1001c7b7          	lui	a5,0x1001c
    10001950:	2007b783          	ld	a5,512(a5) # 1001c200 <xNumOfOverflows>
    10001954:	00178713          	addi	a4,a5,1
    10001958:	1001c7b7          	lui	a5,0x1001c
    1000195c:	20e7b023          	sd	a4,512(a5) # 1001c200 <xNumOfOverflows>
    10001960:	dc4ff0ef          	jal	ra,10000f24 <prvResetNextTaskUnblockTime>
    10001964:	1001c7b7          	lui	a5,0x1001c
    10001968:	2107a783          	lw	a5,528(a5) # 1001c210 <xNextTaskUnblockTime>
    1000196c:	0007871b          	sext.w	a4,a5
    10001970:	fe442783          	lw	a5,-28(s0)
    10001974:	2781                	sext.w	a5,a5
    10001976:	0ce7e063          	bltu	a5,a4,10001a36 <xTaskIncrementTick+0x156>
    1000197a:	1001c7b7          	lui	a5,0x1001c
    1000197e:	1807b783          	ld	a5,384(a5) # 1001c180 <pxDelayedTaskList>
    10001982:	639c                	ld	a5,0(a5)
    10001984:	e399                	bnez	a5,1000198a <xTaskIncrementTick+0xaa>
    10001986:	4785                	li	a5,1
    10001988:	a011                	j	1000198c <xTaskIncrementTick+0xac>
    1000198a:	4781                	li	a5,0
    1000198c:	c799                	beqz	a5,1000199a <xTaskIncrementTick+0xba>
    1000198e:	1001c7b7          	lui	a5,0x1001c
    10001992:	577d                	li	a4,-1
    10001994:	20e7a823          	sw	a4,528(a5) # 1001c210 <xNextTaskUnblockTime>
    10001998:	a879                	j	10001a36 <xTaskIncrementTick+0x156>
    1000199a:	1001c7b7          	lui	a5,0x1001c
    1000199e:	1807b783          	ld	a5,384(a5) # 1001c180 <pxDelayedTaskList>
    100019a2:	6f9c                	ld	a5,24(a5)
    100019a4:	6f9c                	ld	a5,24(a5)
    100019a6:	fcf43823          	sd	a5,-48(s0)
    100019aa:	fd043783          	ld	a5,-48(s0)
    100019ae:	479c                	lw	a5,8(a5)
    100019b0:	fcf42623          	sw	a5,-52(s0)
    100019b4:	fe442703          	lw	a4,-28(s0)
    100019b8:	fcc42783          	lw	a5,-52(s0)
    100019bc:	2701                	sext.w	a4,a4
    100019be:	2781                	sext.w	a5,a5
    100019c0:	00f77963          	bgeu	a4,a5,100019d2 <xTaskIncrementTick+0xf2>
    100019c4:	1001c7b7          	lui	a5,0x1001c
    100019c8:	fcc42703          	lw	a4,-52(s0)
    100019cc:	20e7a823          	sw	a4,528(a5) # 1001c210 <xNextTaskUnblockTime>
    100019d0:	a09d                	j	10001a36 <xTaskIncrementTick+0x156>
    100019d2:	fd043783          	ld	a5,-48(s0)
    100019d6:	07a1                	addi	a5,a5,8
    100019d8:	853e                	mv	a0,a5
    100019da:	cd7fe0ef          	jal	ra,100006b0 <uxListRemove>
    100019de:	fd043783          	ld	a5,-48(s0)
    100019e2:	6bbc                	ld	a5,80(a5)
    100019e4:	cb81                	beqz	a5,100019f4 <xTaskIncrementTick+0x114>
    100019e6:	fd043783          	ld	a5,-48(s0)
    100019ea:	03078793          	addi	a5,a5,48
    100019ee:	853e                	mv	a0,a5
    100019f0:	cc1fe0ef          	jal	ra,100006b0 <uxListRemove>
    100019f4:	fd043783          	ld	a5,-48(s0)
    100019f8:	6fb8                	ld	a4,88(a5)
    100019fa:	87ba                	mv	a5,a4
    100019fc:	078a                	slli	a5,a5,0x2
    100019fe:	97ba                	add	a5,a5,a4
    10001a00:	078e                	slli	a5,a5,0x3
    10001a02:	1001c737          	lui	a4,0x1001c
    10001a06:	06870713          	addi	a4,a4,104 # 1001c068 <pxReadyTasksLists>
    10001a0a:	973e                	add	a4,a4,a5
    10001a0c:	fd043783          	ld	a5,-48(s0)
    10001a10:	07a1                	addi	a5,a5,8
    10001a12:	85be                	mv	a1,a5
    10001a14:	853a                	mv	a0,a4
    10001a16:	c35fe0ef          	jal	ra,1000064a <vListInsertEnd>
    10001a1a:	fd043783          	ld	a5,-48(s0)
    10001a1e:	6fb8                	ld	a4,88(a5)
    10001a20:	1001c7b7          	lui	a5,0x1001c
    10001a24:	3187b783          	ld	a5,792(a5) # 1001c318 <pxCurrentTCB>
    10001a28:	6fbc                	ld	a5,88(a5)
    10001a2a:	f4f768e3          	bltu	a4,a5,1000197a <xTaskIncrementTick+0x9a>
    10001a2e:	4785                	li	a5,1
    10001a30:	fef43423          	sd	a5,-24(s0)
    10001a34:	b799                	j	1000197a <xTaskIncrementTick+0x9a>
    10001a36:	1001c7b7          	lui	a5,0x1001c
    10001a3a:	3187b783          	ld	a5,792(a5) # 1001c318 <pxCurrentTCB>
    10001a3e:	6fb8                	ld	a4,88(a5)
    10001a40:	1001c7b7          	lui	a5,0x1001c
    10001a44:	06878693          	addi	a3,a5,104 # 1001c068 <pxReadyTasksLists>
    10001a48:	87ba                	mv	a5,a4
    10001a4a:	078a                	slli	a5,a5,0x2
    10001a4c:	97ba                	add	a5,a5,a4
    10001a4e:	078e                	slli	a5,a5,0x3
    10001a50:	97b6                	add	a5,a5,a3
    10001a52:	6398                	ld	a4,0(a5)
    10001a54:	4785                	li	a5,1
    10001a56:	02e7f863          	bgeu	a5,a4,10001a86 <xTaskIncrementTick+0x1a6>
    10001a5a:	4785                	li	a5,1
    10001a5c:	fef43423          	sd	a5,-24(s0)
    10001a60:	a01d                	j	10001a86 <xTaskIncrementTick+0x1a6>
    10001a62:	1001c7b7          	lui	a5,0x1001c
    10001a66:	1f07b783          	ld	a5,496(a5) # 1001c1f0 <uxPendedTicks>
    10001a6a:	00178713          	addi	a4,a5,1
    10001a6e:	1001c7b7          	lui	a5,0x1001c
    10001a72:	1ee7b823          	sd	a4,496(a5) # 1001c1f0 <uxPendedTicks>
    10001a76:	1001c7b7          	lui	a5,0x1001c
    10001a7a:	1f87b783          	ld	a5,504(a5) # 1001c1f8 <xYieldPending>
    10001a7e:	c781                	beqz	a5,10001a86 <xTaskIncrementTick+0x1a6>
    10001a80:	4785                	li	a5,1
    10001a82:	fef43423          	sd	a5,-24(s0)
    10001a86:	fe843783          	ld	a5,-24(s0)
    10001a8a:	853e                	mv	a0,a5
    10001a8c:	70e2                	ld	ra,56(sp)
    10001a8e:	7442                	ld	s0,48(sp)
    10001a90:	6121                	addi	sp,sp,64
    10001a92:	8082                	ret

0000000010001a94 <prvInitialiseTaskLists>:
    10001a94:	1101                	addi	sp,sp,-32
    10001a96:	ec06                	sd	ra,24(sp)
    10001a98:	e822                	sd	s0,16(sp)
    10001a9a:	1000                	addi	s0,sp,32
    10001a9c:	fe043423          	sd	zero,-24(s0)
    10001aa0:	a025                	j	10001ac8 <prvInitialiseTaskLists+0x34>
    10001aa2:	fe843703          	ld	a4,-24(s0)
    10001aa6:	87ba                	mv	a5,a4
    10001aa8:	078a                	slli	a5,a5,0x2
    10001aaa:	97ba                	add	a5,a5,a4
    10001aac:	078e                	slli	a5,a5,0x3
    10001aae:	1001c737          	lui	a4,0x1001c
    10001ab2:	06870713          	addi	a4,a4,104 # 1001c068 <pxReadyTasksLists>
    10001ab6:	97ba                	add	a5,a5,a4
    10001ab8:	853e                	mv	a0,a5
    10001aba:	a83fe0ef          	jal	ra,1000053c <vListInitialise>
    10001abe:	fe843783          	ld	a5,-24(s0)
    10001ac2:	0785                	addi	a5,a5,1
    10001ac4:	fef43423          	sd	a5,-24(s0)
    10001ac8:	fe843703          	ld	a4,-24(s0)
    10001acc:	4791                	li	a5,4
    10001ace:	fce7fae3          	bgeu	a5,a4,10001aa2 <prvInitialiseTaskLists+0xe>
    10001ad2:	1001c7b7          	lui	a5,0x1001c
    10001ad6:	13078513          	addi	a0,a5,304 # 1001c130 <xDelayedTaskList1>
    10001ada:	a63fe0ef          	jal	ra,1000053c <vListInitialise>
    10001ade:	1001c7b7          	lui	a5,0x1001c
    10001ae2:	15878513          	addi	a0,a5,344 # 1001c158 <xDelayedTaskList2>
    10001ae6:	a57fe0ef          	jal	ra,1000053c <vListInitialise>
    10001aea:	1001c7b7          	lui	a5,0x1001c
    10001aee:	19078513          	addi	a0,a5,400 # 1001c190 <xPendingReadyList>
    10001af2:	a4bfe0ef          	jal	ra,1000053c <vListInitialise>
    10001af6:	1001c7b7          	lui	a5,0x1001c
    10001afa:	1001c737          	lui	a4,0x1001c
    10001afe:	13070713          	addi	a4,a4,304 # 1001c130 <xDelayedTaskList1>
    10001b02:	18e7b023          	sd	a4,384(a5) # 1001c180 <pxDelayedTaskList>
    10001b06:	1001c7b7          	lui	a5,0x1001c
    10001b0a:	1001c737          	lui	a4,0x1001c
    10001b0e:	15870713          	addi	a4,a4,344 # 1001c158 <xDelayedTaskList2>
    10001b12:	18e7b423          	sd	a4,392(a5) # 1001c188 <pxOverflowDelayedTaskList>
    10001b16:	0001                	nop
    10001b18:	60e2                	ld	ra,24(sp)
    10001b1a:	6442                	ld	s0,16(sp)
    10001b1c:	6105                	addi	sp,sp,32
    10001b1e:	8082                	ret

0000000010001b20 <SetRunning>:
    10001b20:	1101                	addi	sp,sp,-32
    10001b22:	ec22                	sd	s0,24(sp)
    10001b24:	1000                	addi	s0,sp,32
    10001b26:	4785                	li	a5,1
    10001b28:	fef43423          	sd	a5,-24(s0)
    10001b2c:	0001                	nop
    10001b2e:	6462                	ld	s0,24(sp)
    10001b30:	6105                	addi	sp,sp,32
    10001b32:	8082                	ret

0000000010001b34 <prvSetNextTimerInterrupt>:
    10001b34:	1141                	addi	sp,sp,-16
    10001b36:	e422                	sd	s0,8(sp)
    10001b38:	0800                	addi	s0,sp,16
    10001b3a:	020047b7          	lui	a5,0x2004
    10001b3e:	0007b283          	ld	t0,0(a5) # 2004000 <_STACK_SIZE+0x2003000>
    10001b42:	3e800793          	li	a5,1000
    10001b46:	92be                	add	t0,t0,a5
    10001b48:	020047b7          	lui	a5,0x2004
    10001b4c:	00f2b023          	sd	a5,0(t0)
    10001b50:	0001                	nop
    10001b52:	6422                	ld	s0,8(sp)
    10001b54:	0141                	addi	sp,sp,16
    10001b56:	8082                	ret

0000000010001b58 <vPortSetupTimer>:
    10001b58:	1141                	addi	sp,sp,-16
    10001b5a:	e422                	sd	s0,8(sp)
    10001b5c:	0800                	addi	s0,sp,16
    10001b5e:	020047b7          	lui	a5,0x2004
    10001b62:	0007b283          	ld	t0,0(a5) # 2004000 <_STACK_SIZE+0x2003000>
    10001b66:	3e800793          	li	a5,1000
    10001b6a:	92be                	add	t0,t0,a5
    10001b6c:	020047b7          	lui	a5,0x2004
    10001b70:	00f2b023          	sd	a5,0(t0)
    10001b74:	08000793          	li	a5,128
    10001b78:	3047a073          	csrs	mie,a5
    10001b7c:	0001                	nop
    10001b7e:	6422                	ld	s0,8(sp)
    10001b80:	0141                	addi	sp,sp,16
    10001b82:	8082                	ret

0000000010001b84 <vPortSysTickHandler>:
    10001b84:	1141                	addi	sp,sp,-16
    10001b86:	e406                	sd	ra,8(sp)
    10001b88:	e022                	sd	s0,0(sp)
    10001b8a:	0800                	addi	s0,sp,16
    10001b8c:	fa9ff0ef          	jal	ra,10001b34 <prvSetNextTimerInterrupt>
    10001b90:	d51ff0ef          	jal	ra,100018e0 <xTaskIncrementTick>
    10001b94:	87aa                	mv	a5,a0
    10001b96:	c399                	beqz	a5,10001b9c <vPortSysTickHandler+0x18>
    10001b98:	85dff0ef          	jal	ra,100013f4 <vTaskSwitchContext>
    10001b9c:	0001                	nop
    10001b9e:	60a2                	ld	ra,8(sp)
    10001ba0:	6402                	ld	s0,0(sp)
    10001ba2:	0141                	addi	sp,sp,16
    10001ba4:	8082                	ret

0000000010001ba6 <prvCheckForValidListAndQueue>:
    10001ba6:	1141                	addi	sp,sp,-16
    10001ba8:	e406                	sd	ra,8(sp)
    10001baa:	e022                	sd	s0,0(sp)
    10001bac:	0800                	addi	s0,sp,16
    10001bae:	1001c7b7          	lui	a5,0x1001c
    10001bb2:	2887b783          	ld	a5,648(a5) # 1001c288 <xTimerQueue>
    10001bb6:	eba5                	bnez	a5,10001c26 <prvCheckForValidListAndQueue+0x80>
    10001bb8:	1001c7b7          	lui	a5,0x1001c
    10001bbc:	22878513          	addi	a0,a5,552 # 1001c228 <xActiveTimerList1>
    10001bc0:	97dfe0ef          	jal	ra,1000053c <vListInitialise>
    10001bc4:	1001c7b7          	lui	a5,0x1001c
    10001bc8:	25078513          	addi	a0,a5,592 # 1001c250 <xActiveTimerList2>
    10001bcc:	971fe0ef          	jal	ra,1000053c <vListInitialise>
    10001bd0:	1001c7b7          	lui	a5,0x1001c
    10001bd4:	1001c737          	lui	a4,0x1001c
    10001bd8:	22870713          	addi	a4,a4,552 # 1001c228 <xActiveTimerList1>
    10001bdc:	26e7bc23          	sd	a4,632(a5) # 1001c278 <pxCurrentTimerList>
    10001be0:	1001c7b7          	lui	a5,0x1001c
    10001be4:	1001c737          	lui	a4,0x1001c
    10001be8:	25070713          	addi	a4,a4,592 # 1001c250 <xActiveTimerList2>
    10001bec:	28e7b023          	sd	a4,640(a5) # 1001c280 <pxOverflowTimerList>
    10001bf0:	4601                	li	a2,0
    10001bf2:	45e1                	li	a1,24
    10001bf4:	4509                	li	a0,2
    10001bf6:	de5fe0ef          	jal	ra,100009da <xQueueGenericCreate>
    10001bfa:	87aa                	mv	a5,a0
    10001bfc:	873e                	mv	a4,a5
    10001bfe:	1001c7b7          	lui	a5,0x1001c
    10001c02:	28e7b423          	sd	a4,648(a5) # 1001c288 <xTimerQueue>
    10001c06:	1001c7b7          	lui	a5,0x1001c
    10001c0a:	2887b783          	ld	a5,648(a5) # 1001c288 <xTimerQueue>
    10001c0e:	cf81                	beqz	a5,10001c26 <prvCheckForValidListAndQueue+0x80>
    10001c10:	1001c7b7          	lui	a5,0x1001c
    10001c14:	2887b703          	ld	a4,648(a5) # 1001c288 <xTimerQueue>
    10001c18:	100027b7          	lui	a5,0x10002
    10001c1c:	e4878593          	addi	a1,a5,-440 # 10001e48 <xTimerCreateTimerTask+0x60>
    10001c20:	853a                	mv	a0,a4
    10001c22:	e69fe0ef          	jal	ra,10000a8a <vQueueAddToRegistry>
    10001c26:	0001                	nop
    10001c28:	60a2                	ld	ra,8(sp)
    10001c2a:	6402                	ld	s0,0(sp)
    10001c2c:	0141                	addi	sp,sp,16
    10001c2e:	8082                	ret

0000000010001c30 <xTimerCreate>:
    10001c30:	715d                	addi	sp,sp,-80
    10001c32:	e486                	sd	ra,72(sp)
    10001c34:	e0a2                	sd	s0,64(sp)
    10001c36:	0880                	addi	s0,sp,80
    10001c38:	fca43c23          	sd	a0,-40(s0)
    10001c3c:	87ae                	mv	a5,a1
    10001c3e:	fcc43423          	sd	a2,-56(s0)
    10001c42:	fcd43023          	sd	a3,-64(s0)
    10001c46:	fae43c23          	sd	a4,-72(s0)
    10001c4a:	fcf42a23          	sw	a5,-44(s0)
    10001c4e:	fd442783          	lw	a5,-44(s0)
    10001c52:	2781                	sext.w	a5,a5
    10001c54:	e781                	bnez	a5,10001c5c <xTimerCreate+0x2c>
    10001c56:	fe043423          	sd	zero,-24(s0)
    10001c5a:	a8a1                	j	10001cb2 <xTimerCreate+0x82>
    10001c5c:	05000513          	li	a0,80
    10001c60:	e1afe0ef          	jal	ra,1000027a <pvPortMalloc>
    10001c64:	87aa                	mv	a5,a0
    10001c66:	fef43423          	sd	a5,-24(s0)
    10001c6a:	fe843783          	ld	a5,-24(s0)
    10001c6e:	c3b1                	beqz	a5,10001cb2 <xTimerCreate+0x82>
    10001c70:	f37ff0ef          	jal	ra,10001ba6 <prvCheckForValidListAndQueue>
    10001c74:	fe843783          	ld	a5,-24(s0)
    10001c78:	fd843703          	ld	a4,-40(s0)
    10001c7c:	e398                	sd	a4,0(a5)
    10001c7e:	fe843783          	ld	a5,-24(s0)
    10001c82:	fd442703          	lw	a4,-44(s0)
    10001c86:	db98                	sw	a4,48(a5)
    10001c88:	fe843783          	ld	a5,-24(s0)
    10001c8c:	fc843703          	ld	a4,-56(s0)
    10001c90:	ff98                	sd	a4,56(a5)
    10001c92:	fe843783          	ld	a5,-24(s0)
    10001c96:	fc043703          	ld	a4,-64(s0)
    10001c9a:	e3b8                	sd	a4,64(a5)
    10001c9c:	fe843783          	ld	a5,-24(s0)
    10001ca0:	fb843703          	ld	a4,-72(s0)
    10001ca4:	e7b8                	sd	a4,72(a5)
    10001ca6:	fe843783          	ld	a5,-24(s0)
    10001caa:	07a1                	addi	a5,a5,8
    10001cac:	853e                	mv	a0,a5
    10001cae:	8dbfe0ef          	jal	ra,10000588 <vListInitialiseItem>
    10001cb2:	fe843783          	ld	a5,-24(s0)
    10001cb6:	853e                	mv	a0,a5
    10001cb8:	60a6                	ld	ra,72(sp)
    10001cba:	6406                	ld	s0,64(sp)
    10001cbc:	6161                	addi	sp,sp,80
    10001cbe:	8082                	ret

0000000010001cc0 <prvGetNextExpireTime>:
    10001cc0:	7179                	addi	sp,sp,-48
    10001cc2:	f422                	sd	s0,40(sp)
    10001cc4:	1800                	addi	s0,sp,48
    10001cc6:	fca43c23          	sd	a0,-40(s0)
    10001cca:	1001c7b7          	lui	a5,0x1001c
    10001cce:	2787b783          	ld	a5,632(a5) # 1001c278 <pxCurrentTimerList>
    10001cd2:	639c                	ld	a5,0(a5)
    10001cd4:	0017b793          	seqz	a5,a5
    10001cd8:	0ff7f793          	andi	a5,a5,255
    10001cdc:	873e                	mv	a4,a5
    10001cde:	fd843783          	ld	a5,-40(s0)
    10001ce2:	e398                	sd	a4,0(a5)
    10001ce4:	fd843783          	ld	a5,-40(s0)
    10001ce8:	639c                	ld	a5,0(a5)
    10001cea:	eb91                	bnez	a5,10001cfe <prvGetNextExpireTime+0x3e>
    10001cec:	1001c7b7          	lui	a5,0x1001c
    10001cf0:	2787b783          	ld	a5,632(a5) # 1001c278 <pxCurrentTimerList>
    10001cf4:	6f9c                	ld	a5,24(a5)
    10001cf6:	439c                	lw	a5,0(a5)
    10001cf8:	fef42623          	sw	a5,-20(s0)
    10001cfc:	a019                	j	10001d02 <prvGetNextExpireTime+0x42>
    10001cfe:	fe042623          	sw	zero,-20(s0)
    10001d02:	fec42783          	lw	a5,-20(s0)
    10001d06:	853e                	mv	a0,a5
    10001d08:	7422                	ld	s0,40(sp)
    10001d0a:	6145                	addi	sp,sp,48
    10001d0c:	8082                	ret

0000000010001d0e <prvTimerTask>:
    10001d0e:	1101                	addi	sp,sp,-32
    10001d10:	ec22                	sd	s0,24(sp)
    10001d12:	1000                	addi	s0,sp,32
    10001d14:	fea43423          	sd	a0,-24(s0)
    10001d18:	a001                	j	10001d18 <prvTimerTask+0xa>

0000000010001d1a <xTimerGenericCommand>:
    10001d1a:	715d                	addi	sp,sp,-80
    10001d1c:	e486                	sd	ra,72(sp)
    10001d1e:	e0a2                	sd	s0,64(sp)
    10001d20:	0880                	addi	s0,sp,80
    10001d22:	fca43423          	sd	a0,-56(s0)
    10001d26:	fcb43023          	sd	a1,-64(s0)
    10001d2a:	87b2                	mv	a5,a2
    10001d2c:	fad43823          	sd	a3,-80(s0)
    10001d30:	faf42e23          	sw	a5,-68(s0)
    10001d34:	87ba                	mv	a5,a4
    10001d36:	faf42c23          	sw	a5,-72(s0)
    10001d3a:	fe043423          	sd	zero,-24(s0)
    10001d3e:	1001c7b7          	lui	a5,0x1001c
    10001d42:	2887b783          	ld	a5,648(a5) # 1001c288 <xTimerQueue>
    10001d46:	cbd1                	beqz	a5,10001dda <xTimerGenericCommand+0xc0>
    10001d48:	fc043783          	ld	a5,-64(s0)
    10001d4c:	fcf43823          	sd	a5,-48(s0)
    10001d50:	fbc42783          	lw	a5,-68(s0)
    10001d54:	fcf42c23          	sw	a5,-40(s0)
    10001d58:	fc843783          	ld	a5,-56(s0)
    10001d5c:	fef43023          	sd	a5,-32(s0)
    10001d60:	fc043703          	ld	a4,-64(s0)
    10001d64:	4795                	li	a5,5
    10001d66:	04e7ca63          	blt	a5,a4,10001dba <xTimerGenericCommand+0xa0>
    10001d6a:	877ff0ef          	jal	ra,100015e0 <xTaskGetSchedulerState>
    10001d6e:	87aa                	mv	a5,a0
    10001d70:	873e                	mv	a4,a5
    10001d72:	4789                	li	a5,2
    10001d74:	02f71363          	bne	a4,a5,10001d9a <xTimerGenericCommand+0x80>
    10001d78:	1001c7b7          	lui	a5,0x1001c
    10001d7c:	2887b783          	ld	a5,648(a5) # 1001c288 <xTimerQueue>
    10001d80:	fb842603          	lw	a2,-72(s0)
    10001d84:	fd040713          	addi	a4,s0,-48
    10001d88:	4681                	li	a3,0
    10001d8a:	85ba                	mv	a1,a4
    10001d8c:	853e                	mv	a0,a5
    10001d8e:	e7dfe0ef          	jal	ra,10000c0a <xQueueGenericSend>
    10001d92:	87aa                	mv	a5,a0
    10001d94:	fef43423          	sd	a5,-24(s0)
    10001d98:	a089                	j	10001dda <xTimerGenericCommand+0xc0>
    10001d9a:	1001c7b7          	lui	a5,0x1001c
    10001d9e:	2887b783          	ld	a5,648(a5) # 1001c288 <xTimerQueue>
    10001da2:	fd040713          	addi	a4,s0,-48
    10001da6:	4681                	li	a3,0
    10001da8:	4601                	li	a2,0
    10001daa:	85ba                	mv	a1,a4
    10001dac:	853e                	mv	a0,a5
    10001dae:	e5dfe0ef          	jal	ra,10000c0a <xQueueGenericSend>
    10001db2:	87aa                	mv	a5,a0
    10001db4:	fef43423          	sd	a5,-24(s0)
    10001db8:	a00d                	j	10001dda <xTimerGenericCommand+0xc0>
    10001dba:	1001c7b7          	lui	a5,0x1001c
    10001dbe:	2887b783          	ld	a5,648(a5) # 1001c288 <xTimerQueue>
    10001dc2:	fd040713          	addi	a4,s0,-48
    10001dc6:	4681                	li	a3,0
    10001dc8:	fb043603          	ld	a2,-80(s0)
    10001dcc:	85ba                	mv	a1,a4
    10001dce:	853e                	mv	a0,a5
    10001dd0:	924ff0ef          	jal	ra,10000ef4 <xQueueGenericSendFromISR>
    10001dd4:	87aa                	mv	a5,a0
    10001dd6:	fef43423          	sd	a5,-24(s0)
    10001dda:	fe843783          	ld	a5,-24(s0)
    10001dde:	853e                	mv	a0,a5
    10001de0:	60a6                	ld	ra,72(sp)
    10001de2:	6406                	ld	s0,64(sp)
    10001de4:	6161                	addi	sp,sp,80
    10001de6:	8082                	ret

0000000010001de8 <xTimerCreateTimerTask>:
    10001de8:	1101                	addi	sp,sp,-32
    10001dea:	ec06                	sd	ra,24(sp)
    10001dec:	e822                	sd	s0,16(sp)
    10001dee:	1000                	addi	s0,sp,32
    10001df0:	fe043423          	sd	zero,-24(s0)
    10001df4:	db3ff0ef          	jal	ra,10001ba6 <prvCheckForValidListAndQueue>
    10001df8:	1001c7b7          	lui	a5,0x1001c
    10001dfc:	2887b783          	ld	a5,648(a5) # 1001c288 <xTimerQueue>
    10001e00:	c78d                	beqz	a5,10001e2a <xTimerCreateTimerTask+0x42>
    10001e02:	4881                	li	a7,0
    10001e04:	4801                	li	a6,0
    10001e06:	4781                	li	a5,0
    10001e08:	4709                	li	a4,2
    10001e0a:	4681                	li	a3,0
    10001e0c:	40000613          	li	a2,1024
    10001e10:	100025b7          	lui	a1,0x10002
    10001e14:	e5058593          	addi	a1,a1,-432 # 10001e50 <xTimerCreateTimerTask+0x68>
    10001e18:	10002537          	lui	a0,0x10002
    10001e1c:	d0e50513          	addi	a0,a0,-754 # 10001d0e <prvTimerTask>
    10001e20:	c40ff0ef          	jal	ra,10001260 <xTaskGenericCreate>
    10001e24:	87aa                	mv	a5,a0
    10001e26:	fef43423          	sd	a5,-24(s0)
    10001e2a:	fe843783          	ld	a5,-24(s0)
    10001e2e:	853e                	mv	a0,a5
    10001e30:	60e2                	ld	ra,24(sp)
    10001e32:	6442                	ld	s0,16(sp)
    10001e34:	6105                	addi	sp,sp,32
    10001e36:	8082                	ret

test：     文件格式 elf64-littleriscv

