
test:     file format elf64-littleriscv
test
architecture: riscv:rv64, flags 0x00000112:
EXEC_P, HAS_SYMS, D_PAGED
start address 0x0000000010000000

Program Header:
    LOAD off    0x0000000000001000 vaddr 0x0000000010000000 paddr 0x0000000010000000 align 2**12
         filesz 0x0000000000000388 memsz 0x000000000001a3ac flags rwx

Sections:
Idx Name          Size      VMA               LMA               File off  Algn
  0 .text         00000382  0000000010000000  0000000010000000  00001000  2**6
                  CONTENTS, ALLOC, LOAD, READONLY, CODE
  1 .srodata      00000002  0000000010000382  0000000010000382  00001382  2**1
                  CONTENTS, ALLOC, LOAD, READONLY, DATA
  2 .sdata        00000004  0000000010000384  0000000010000384  00001384  2**2
                  CONTENTS, ALLOC, LOAD, DATA
  3 .stack        00001000  0000000010000388  0000000010000388  00001388  2**0
                  ALLOC
  4 .bss          00019024  0000000010001388  0000000010001388  00001388  2**3
                  ALLOC
  5 .riscv.attributes 00000035  0000000000000000  0000000000000000  00001388  2**0
                  CONTENTS, READONLY
  6 .comment      00000011  0000000000000000  0000000000000000  000013bd  2**0
                  CONTENTS, READONLY
SYMBOL TABLE:
0000000010000000 l    d  .text	0000000000000000 .text
0000000010000382 l    d  .srodata	0000000000000000 .srodata
0000000010000384 l    d  .sdata	0000000000000000 .sdata
0000000010000388 l    d  .stack	0000000000000000 .stack
0000000010001388 l    d  .bss	0000000000000000 .bss
0000000000000000 l    d  .riscv.attributes	0000000000000000 .riscv.attributes
0000000000000000 l    d  .comment	0000000000000000 .comment
0000000000000000 l    df *ABS*	0000000000000000 /tmp/ccBAvQqW.o
0000000010000046 l       .text	0000000000000000 init_bss
0000000010000068 l       .text	0000000000000000 fill_block
000000001000005c l       .text	0000000000000000 init_stack
0000000010000072 l       .text	0000000000000000 fb_end
0000000000000000 l    df *ABS*	0000000000000000 main.c
0000000000000000 l    df *ABS*	0000000000000000 heap2.c
0000000010001388 l     O .bss	0000000000000010 xStart
0000000010001398 l     O .bss	0000000000000010 xEnd
00000000100013a8 l     O .bss	0000000000019000 ucHeap
0000000010000384 l     O .sdata	0000000000000004 xFreeBytesRemaining
0000000010000382 l     O .srodata	0000000000000002 heapSTRUCT_SIZE
00000000100000ba l     F .text	0000000000000074 prvHeapInit
000000001001a3a8 l     O .bss	0000000000000001 xHeapHasBeenInitialised.1522
0000000010000b84 g       .sdata	0000000000000000 _gp
00000000100002e4 g     F .text	000000000000009e vPortFree
000000001001a3ac g       .bss	0000000000000000 __bss_end
000000001000012e g     F .text	00000000000001b6 pvPortMalloc
0000000010001388 g       .bss	0000000000000000 __bss_start
0000000000001000 g       *ABS*	0000000000000000 _STACK_SIZE
0000000010000388 g       .stack	0000000000000000 _stack_end
0000000010000000 g       .text	0000000000000000 _mstart
0000000010000082 g     F .text	0000000000000038 vSyscallInit
0000000010001388 g       .stack	0000000000000000 __stack
0000000010001388 g       .stack	0000000000000000 _stack



Disassembly of section .text:

0000000010000000 <_mstart>:
    10000000:	4081                	li	ra,0
    10000002:	4101                	li	sp,0
    10000004:	4181                	li	gp,0
    10000006:	4201                	li	tp,0
    10000008:	4281                	li	t0,0
    1000000a:	4301                	li	t1,0
    1000000c:	4381                	li	t2,0
    1000000e:	4401                	li	s0,0
    10000010:	4481                	li	s1,0
    10000012:	4501                	li	a0,0
    10000014:	4581                	li	a1,0
    10000016:	4601                	li	a2,0
    10000018:	4681                	li	a3,0
    1000001a:	4701                	li	a4,0
    1000001c:	4781                	li	a5,0
    1000001e:	4801                	li	a6,0
    10000020:	4881                	li	a7,0
    10000022:	4901                	li	s2,0
    10000024:	4981                	li	s3,0
    10000026:	4a01                	li	s4,0
    10000028:	4a81                	li	s5,0
    1000002a:	4b01                	li	s6,0
    1000002c:	4b81                	li	s7,0
    1000002e:	4c01                	li	s8,0
    10000030:	4c81                	li	s9,0
    10000032:	4d01                	li	s10,0
    10000034:	4d81                	li	s11,0
    10000036:	4e01                	li	t3,0
    10000038:	4e81                	li	t4,0
    1000003a:	4f01                	li	t5,0
    1000003c:	4f81                	li	t6,0
    1000003e:	00001197          	auipc	gp,0x1
    10000042:	b4618193          	addi	gp,gp,-1210 # 10000b84 <_gp>

0000000010000046 <init_bss>:
    10000046:	00001517          	auipc	a0,0x1
    1000004a:	34250513          	addi	a0,a0,834 # 10001388 <__stack>
    1000004e:	0001a597          	auipc	a1,0x1a
    10000052:	35e58593          	addi	a1,a1,862 # 1001a3ac <__bss_end>
    10000056:	4601                	li	a2,0
    10000058:	010000ef          	jal	ra,10000068 <fill_block>

000000001000005c <init_stack>:
    1000005c:	00001117          	auipc	sp,0x1
    10000060:	32c10113          	addi	sp,sp,812 # 10001388 <__stack>
    10000064:	01e0006f          	j	10000082 <vSyscallInit>

0000000010000068 <fill_block>:
    10000068:	c110                	sw	a2,0(a0)
    1000006a:	00b57463          	bgeu	a0,a1,10000072 <fb_end>
    1000006e:	0511                	addi	a0,a0,4
    10000070:	bfe5                	j	10000068 <fill_block>

0000000010000072 <fb_end>:
    10000072:	8082                	ret
	...

0000000010000082 <vSyscallInit>:
    10000082:	1101                	addi	sp,sp,-32
    10000084:	ec06                	sd	ra,24(sp)
    10000086:	e822                	sd	s0,16(sp)
    10000088:	1000                	addi	s0,sp,32
    1000008a:	4785                	li	a5,1
    1000008c:	fef42623          	sw	a5,-20(s0)
    10000090:	4789                	li	a5,2
    10000092:	fef42423          	sw	a5,-24(s0)
    10000096:	fec42703          	lw	a4,-20(s0)
    1000009a:	fe842783          	lw	a5,-24(s0)
    1000009e:	9fb9                	addw	a5,a5,a4
    100000a0:	fef42623          	sw	a5,-20(s0)
    100000a4:	03200513          	li	a0,50
    100000a8:	086000ef          	jal	ra,1000012e <pvPortMalloc>
    100000ac:	fea43023          	sd	a0,-32(s0)
    100000b0:	0001                	nop
    100000b2:	60e2                	ld	ra,24(sp)
    100000b4:	6442                	ld	s0,16(sp)
    100000b6:	6105                	addi	sp,sp,32
    100000b8:	8082                	ret

00000000100000ba <prvHeapInit>:
    100000ba:	1101                	addi	sp,sp,-32
    100000bc:	ec22                	sd	s0,24(sp)
    100000be:	1000                	addi	s0,sp,32
    100000c0:	100017b7          	lui	a5,0x10001
    100000c4:	3b078793          	addi	a5,a5,944 # 100013b0 <ucHeap+0x8>
    100000c8:	2781                	sext.w	a5,a5
    100000ca:	9be1                	andi	a5,a5,-8
    100000cc:	2781                	sext.w	a5,a5
    100000ce:	fef43423          	sd	a5,-24(s0)
    100000d2:	100017b7          	lui	a5,0x10001
    100000d6:	38878793          	addi	a5,a5,904 # 10001388 <__stack>
    100000da:	fe843703          	ld	a4,-24(s0)
    100000de:	e398                	sd	a4,0(a5)
    100000e0:	100017b7          	lui	a5,0x10001
    100000e4:	38878793          	addi	a5,a5,904 # 10001388 <__stack>
    100000e8:	0007a423          	sw	zero,8(a5)
    100000ec:	100017b7          	lui	a5,0x10001
    100000f0:	39878793          	addi	a5,a5,920 # 10001398 <xEnd>
    100000f4:	0007b023          	sd	zero,0(a5)
    100000f8:	100017b7          	lui	a5,0x10001
    100000fc:	39878793          	addi	a5,a5,920 # 10001398 <xEnd>
    10000100:	6765                	lui	a4,0x19
    10000102:	3761                	addiw	a4,a4,-8
    10000104:	c798                	sw	a4,8(a5)
    10000106:	fe843783          	ld	a5,-24(s0)
    1000010a:	fef43023          	sd	a5,-32(s0)
    1000010e:	fe043783          	ld	a5,-32(s0)
    10000112:	6765                	lui	a4,0x19
    10000114:	3761                	addiw	a4,a4,-8
    10000116:	c798                	sw	a4,8(a5)
    10000118:	fe043783          	ld	a5,-32(s0)
    1000011c:	10001737          	lui	a4,0x10001
    10000120:	39870713          	addi	a4,a4,920 # 10001398 <xEnd>
    10000124:	e398                	sd	a4,0(a5)
    10000126:	0001                	nop
    10000128:	6462                	ld	s0,24(sp)
    1000012a:	6105                	addi	sp,sp,32
    1000012c:	8082                	ret

000000001000012e <pvPortMalloc>:
    1000012e:	715d                	addi	sp,sp,-80
    10000130:	e486                	sd	ra,72(sp)
    10000132:	e0a2                	sd	s0,64(sp)
    10000134:	0880                	addi	s0,sp,80
    10000136:	87aa                	mv	a5,a0
    10000138:	faf42e23          	sw	a5,-68(s0)
    1000013c:	fc043c23          	sd	zero,-40(s0)
    10000140:	1001a7b7          	lui	a5,0x1001a
    10000144:	3a87c783          	lbu	a5,936(a5) # 1001a3a8 <xHeapHasBeenInitialised.1522>
    10000148:	eb81                	bnez	a5,10000158 <pvPortMalloc+0x2a>
    1000014a:	f71ff0ef          	jal	ra,100000ba <prvHeapInit>
    1000014e:	1001a7b7          	lui	a5,0x1001a
    10000152:	4705                	li	a4,1
    10000154:	3ae78423          	sb	a4,936(a5) # 1001a3a8 <xHeapHasBeenInitialised.1522>
    10000158:	fbc42783          	lw	a5,-68(s0)
    1000015c:	2781                	sext.w	a5,a5
    1000015e:	02f05b63          	blez	a5,10000194 <pvPortMalloc+0x66>
    10000162:	47c1                	li	a5,16
    10000164:	2781                	sext.w	a5,a5
    10000166:	fbc42703          	lw	a4,-68(s0)
    1000016a:	9fb9                	addw	a5,a5,a4
    1000016c:	faf42e23          	sw	a5,-68(s0)
    10000170:	fbc42783          	lw	a5,-68(s0)
    10000174:	8b9d                	andi	a5,a5,7
    10000176:	2781                	sext.w	a5,a5
    10000178:	cf91                	beqz	a5,10000194 <pvPortMalloc+0x66>
    1000017a:	fbc42783          	lw	a5,-68(s0)
    1000017e:	8b9d                	andi	a5,a5,7
    10000180:	2781                	sext.w	a5,a5
    10000182:	4721                	li	a4,8
    10000184:	40f707bb          	subw	a5,a4,a5
    10000188:	2781                	sext.w	a5,a5
    1000018a:	fbc42703          	lw	a4,-68(s0)
    1000018e:	9fb9                	addw	a5,a5,a4
    10000190:	faf42e23          	sw	a5,-68(s0)
    10000194:	fbc42783          	lw	a5,-68(s0)
    10000198:	2781                	sext.w	a5,a5
    1000019a:	12f05e63          	blez	a5,100002d6 <pvPortMalloc+0x1a8>
    1000019e:	fbc42783          	lw	a5,-68(s0)
    100001a2:	0007871b          	sext.w	a4,a5
    100001a6:	67e5                	lui	a5,0x19
    100001a8:	17dd                	addi	a5,a5,-9
    100001aa:	12e7c663          	blt	a5,a4,100002d6 <pvPortMalloc+0x1a8>
    100001ae:	100017b7          	lui	a5,0x10001
    100001b2:	38878793          	addi	a5,a5,904 # 10001388 <__stack>
    100001b6:	fef43023          	sd	a5,-32(s0)
    100001ba:	100017b7          	lui	a5,0x10001
    100001be:	38878793          	addi	a5,a5,904 # 10001388 <__stack>
    100001c2:	639c                	ld	a5,0(a5)
    100001c4:	fef43423          	sd	a5,-24(s0)
    100001c8:	a811                	j	100001dc <pvPortMalloc+0xae>
    100001ca:	fe843783          	ld	a5,-24(s0)
    100001ce:	fef43023          	sd	a5,-32(s0)
    100001d2:	fe843783          	ld	a5,-24(s0)
    100001d6:	639c                	ld	a5,0(a5)
    100001d8:	fef43423          	sd	a5,-24(s0)
    100001dc:	fe843783          	ld	a5,-24(s0)
    100001e0:	4798                	lw	a4,8(a5)
    100001e2:	fbc42783          	lw	a5,-68(s0)
    100001e6:	2781                	sext.w	a5,a5
    100001e8:	00f75663          	bge	a4,a5,100001f4 <pvPortMalloc+0xc6>
    100001ec:	fe843783          	ld	a5,-24(s0)
    100001f0:	639c                	ld	a5,0(a5)
    100001f2:	ffe1                	bnez	a5,100001ca <pvPortMalloc+0x9c>
    100001f4:	fe843703          	ld	a4,-24(s0)
    100001f8:	100017b7          	lui	a5,0x10001
    100001fc:	39878793          	addi	a5,a5,920 # 10001398 <xEnd>
    10000200:	0cf70b63          	beq	a4,a5,100002d6 <pvPortMalloc+0x1a8>
    10000204:	fe043783          	ld	a5,-32(s0)
    10000208:	639c                	ld	a5,0(a5)
    1000020a:	4741                	li	a4,16
    1000020c:	97ba                	add	a5,a5,a4
    1000020e:	fcf43c23          	sd	a5,-40(s0)
    10000212:	fe843783          	ld	a5,-24(s0)
    10000216:	6398                	ld	a4,0(a5)
    10000218:	fe043783          	ld	a5,-32(s0)
    1000021c:	e398                	sd	a4,0(a5)
    1000021e:	fe843783          	ld	a5,-24(s0)
    10000222:	4798                	lw	a4,8(a5)
    10000224:	fbc42783          	lw	a5,-68(s0)
    10000228:	40f707bb          	subw	a5,a4,a5
    1000022c:	0007871b          	sext.w	a4,a5
    10000230:	47c1                	li	a5,16
    10000232:	2781                	sext.w	a5,a5
    10000234:	0017979b          	slliw	a5,a5,0x1
    10000238:	2781                	sext.w	a5,a5
    1000023a:	06e7df63          	bge	a5,a4,100002b8 <pvPortMalloc+0x18a>
    1000023e:	fbc42783          	lw	a5,-68(s0)
    10000242:	fe843703          	ld	a4,-24(s0)
    10000246:	97ba                	add	a5,a5,a4
    10000248:	fcf43423          	sd	a5,-56(s0)
    1000024c:	fe843783          	ld	a5,-24(s0)
    10000250:	4798                	lw	a4,8(a5)
    10000252:	fbc42783          	lw	a5,-68(s0)
    10000256:	40f707bb          	subw	a5,a4,a5
    1000025a:	0007871b          	sext.w	a4,a5
    1000025e:	fc843783          	ld	a5,-56(s0)
    10000262:	c798                	sw	a4,8(a5)
    10000264:	fe843783          	ld	a5,-24(s0)
    10000268:	fbc42703          	lw	a4,-68(s0)
    1000026c:	c798                	sw	a4,8(a5)
    1000026e:	fc843783          	ld	a5,-56(s0)
    10000272:	479c                	lw	a5,8(a5)
    10000274:	fcf42223          	sw	a5,-60(s0)
    10000278:	100017b7          	lui	a5,0x10001
    1000027c:	38878793          	addi	a5,a5,904 # 10001388 <__stack>
    10000280:	fcf43823          	sd	a5,-48(s0)
    10000284:	a031                	j	10000290 <pvPortMalloc+0x162>
    10000286:	fd043783          	ld	a5,-48(s0)
    1000028a:	639c                	ld	a5,0(a5)
    1000028c:	fcf43823          	sd	a5,-48(s0)
    10000290:	fd043783          	ld	a5,-48(s0)
    10000294:	639c                	ld	a5,0(a5)
    10000296:	4798                	lw	a4,8(a5)
    10000298:	fc442783          	lw	a5,-60(s0)
    1000029c:	2781                	sext.w	a5,a5
    1000029e:	fef744e3          	blt	a4,a5,10000286 <pvPortMalloc+0x158>
    100002a2:	fd043783          	ld	a5,-48(s0)
    100002a6:	6398                	ld	a4,0(a5)
    100002a8:	fc843783          	ld	a5,-56(s0)
    100002ac:	e398                	sd	a4,0(a5)
    100002ae:	fd043783          	ld	a5,-48(s0)
    100002b2:	fc843703          	ld	a4,-56(s0)
    100002b6:	e398                	sd	a4,0(a5)
    100002b8:	100007b7          	lui	a5,0x10000
    100002bc:	3847a703          	lw	a4,900(a5) # 10000384 <xFreeBytesRemaining>
    100002c0:	fe843783          	ld	a5,-24(s0)
    100002c4:	479c                	lw	a5,8(a5)
    100002c6:	40f707bb          	subw	a5,a4,a5
    100002ca:	0007871b          	sext.w	a4,a5
    100002ce:	100007b7          	lui	a5,0x10000
    100002d2:	38e7a223          	sw	a4,900(a5) # 10000384 <xFreeBytesRemaining>
    100002d6:	fd843783          	ld	a5,-40(s0)
    100002da:	853e                	mv	a0,a5
    100002dc:	60a6                	ld	ra,72(sp)
    100002de:	6406                	ld	s0,64(sp)
    100002e0:	6161                	addi	sp,sp,80
    100002e2:	8082                	ret

00000000100002e4 <vPortFree>:
    100002e4:	7139                	addi	sp,sp,-64
    100002e6:	fc22                	sd	s0,56(sp)
    100002e8:	0080                	addi	s0,sp,64
    100002ea:	fca43423          	sd	a0,-56(s0)
    100002ee:	fc843783          	ld	a5,-56(s0)
    100002f2:	fef43023          	sd	a5,-32(s0)
    100002f6:	fc843783          	ld	a5,-56(s0)
    100002fa:	c3c1                	beqz	a5,1000037a <vPortFree+0x96>
    100002fc:	47c1                	li	a5,16
    100002fe:	40f007b3          	neg	a5,a5
    10000302:	fe043703          	ld	a4,-32(s0)
    10000306:	97ba                	add	a5,a5,a4
    10000308:	fef43023          	sd	a5,-32(s0)
    1000030c:	fe043783          	ld	a5,-32(s0)
    10000310:	fcf43c23          	sd	a5,-40(s0)
    10000314:	fd843783          	ld	a5,-40(s0)
    10000318:	479c                	lw	a5,8(a5)
    1000031a:	fcf42a23          	sw	a5,-44(s0)
    1000031e:	100017b7          	lui	a5,0x10001
    10000322:	38878793          	addi	a5,a5,904 # 10001388 <__stack>
    10000326:	fef43423          	sd	a5,-24(s0)
    1000032a:	a031                	j	10000336 <vPortFree+0x52>
    1000032c:	fe843783          	ld	a5,-24(s0)
    10000330:	639c                	ld	a5,0(a5)
    10000332:	fef43423          	sd	a5,-24(s0)
    10000336:	fe843783          	ld	a5,-24(s0)
    1000033a:	639c                	ld	a5,0(a5)
    1000033c:	4798                	lw	a4,8(a5)
    1000033e:	fd442783          	lw	a5,-44(s0)
    10000342:	2781                	sext.w	a5,a5
    10000344:	fef744e3          	blt	a4,a5,1000032c <vPortFree+0x48>
    10000348:	fe843783          	ld	a5,-24(s0)
    1000034c:	6398                	ld	a4,0(a5)
    1000034e:	fd843783          	ld	a5,-40(s0)
    10000352:	e398                	sd	a4,0(a5)
    10000354:	fe843783          	ld	a5,-24(s0)
    10000358:	fd843703          	ld	a4,-40(s0)
    1000035c:	e398                	sd	a4,0(a5)
    1000035e:	fd843783          	ld	a5,-40(s0)
    10000362:	4798                	lw	a4,8(a5)
    10000364:	100007b7          	lui	a5,0x10000
    10000368:	3847a783          	lw	a5,900(a5) # 10000384 <xFreeBytesRemaining>
    1000036c:	9fb9                	addw	a5,a5,a4
    1000036e:	0007871b          	sext.w	a4,a5
    10000372:	100007b7          	lui	a5,0x10000
    10000376:	38e7a223          	sw	a4,900(a5) # 10000384 <xFreeBytesRemaining>
    1000037a:	0001                	nop
    1000037c:	7462                	ld	s0,56(sp)
    1000037e:	6121                	addi	sp,sp,64
    10000380:	8082                	ret

test:     file format elf64-littleriscv

